(dp0
S'n004'
p1
(lp2
(iHistoryObjects
State
p3
(dp4
S'tables'
p5
(lp6
sS'received'
p7
(lp8
sS'state_tables'
p9
ccollections
OrderedDict
p10
((lp11
(lp12
S'defender.cadd_policy'
p13
a(lp14
(lp15
S'n002n005'
p16
aS'10'
p17
aa(lp18
S'n003n005'
p19
aS'5'
p20
aa(lp21
S'n005'
p22
aS'20'
p23
aaaa(lp24
S'neighbour'
p25
a(lp26
(lp27
S'n002'
p28
aa(lp29
S'n003'
p30
aa(lp31
S'n005'
p32
aaaa(lp33
S'defender.cdel_neighbour'
p34
a(lp35
aa(lp36
S'defender.cadd_neighbour'
p37
a(lp38
aa(lp39
S'defender.cdel_policy'
p40
a(lp41
aa(lp42
S'defender.policy'
p43
a(lp44
aa(lp45
S'defender.rib_in_changed'
p46
a(lp47
aa(lp48
S'defender.rib_in'
p49
a(lp50
aa(lp51
S'defender.best_local_pref'
p52
a(lp53
aa(lp54
S'defender.best_cost'
p55
a(lp56
aa(lp57
S'defender.best_next_hop'
p58
a(lp59
aa(lp60
S'defender.rib_selected'
p61
a(lp62
aa(lp63
S'defender.deleted'
p64
a(lp65
aatp66
Rp67
sS'instance'
p68
g1
sS'state_nr'
p69
I0
sS'sent'
p70
(lp71
sba(iHistoryObjects
State
p72
(dp73
g5
(lp74
sg7
(lp75
(iHistoryObjects
Message
p76
(dp77
S'src'
p78
S'admin'
p79
sS'dest'
p80
g1
sS'content'
p81
(lp82
sS'will_be_lost'
p83
I1
sS'table_name'
p84
S'defender.start'
p85
sS'time'
p86
S'1'
p87
sS'unique_id'
p88
I-1
sbasg9
g10
((lp89
(lp90
S'defender.policy'
p91
a(lp92
(lp93
S'n002n005'
p94
aS'10'
p95
aa(lp96
S'n003n005'
p97
ag20
aa(lp98
S'n005'
p99
aS'20'
p100
aaaa(lp101
S'neighbour'
p102
a(lp103
(lp104
S'n002'
p105
aa(lp106
S'n003'
p107
aa(lp108
S'n005'
p109
aaaa(lp110
g34
a(lp111
aa(lp112
g37
a(lp113
aa(lp114
S'defender.cadd_policy'
p115
a(lp116
aa(lp117
g40
a(lp118
aa(lp119
g46
a(lp120
aa(lp121
g49
a(lp122
aa(lp123
g52
a(lp124
aa(lp125
g55
a(lp126
aa(lp127
g58
a(lp128
aa(lp129
g61
a(lp130
aa(lp131
g64
a(lp132
aatp133
Rp134
sg68
g1
sg69
I1
sg70
(lp135
(iHistoryObjects
Message
p136
(dp137
g78
S'n004'
p138
sg80
S'n002'
p139
sg81
(lp140
S'n004'
p141
aS'n004'
p142
asg83
I0
sg84
S'defender.advert'
p143
sg86
S'2013-09-24 18:09:20.254'
p144
sg88
I0
sba(iHistoryObjects
Message
p145
(dp146
g78
S'n004'
p147
sg80
S'n005'
p148
sg81
(lp149
S'n004'
p150
aS'n004'
p151
asg83
I1
sg84
S'defender.advert'
p152
sg86
S'2013-09-24 18:09:20.254'
p153
sg69
I1
sg88
I1
sba(iHistoryObjects
Message
p154
(dp155
g78
S'n004'
p156
sg80
S'n003'
p157
sg81
(lp158
S'n004'
p159
aS'n004'
p160
asg83
I0
sg84
S'defender.advert'
p161
sg86
S'2013-09-24 18:09:20.254'
p162
sg88
I2
sbasba(iHistoryObjects
State
p163
(dp164
g5
(lp165
sg7
(lp166
(iHistoryObjects
Message
p167
(dp168
g78
S'n002'
p169
sg80
S'n004'
p170
sg81
(lp171
S'n002'
p172
aS'n002'
p173
asg83
I1
sg84
S'defender.advert'
p174
sg86
S'2013-09-24 18:09:19.968'
p175
sg88
I40
sbasg9
g10
((lp176
(lp177
S'defender.policy'
p178
a(lp179
(lp180
S'n002n005'
p181
aS'10'
p182
aa(lp183
S'n003n005'
p184
ag20
aa(lp185
S'n005'
p186
aS'20'
p187
aaaa(lp188
S'defender.rib_in_changed'
p189
a(lp190
(lp191
S'n002'
p192
aS'n002'
p193
aaaa(lp194
S'neighbour'
p195
a(lp196
(lp197
S'n002'
p198
aa(lp199
S'n003'
p200
aa(lp201
S'n005'
p202
aaaa(lp203
g34
a(lp204
aa(lp205
g37
a(lp206
aa(lp207
g115
a(lp208
aa(lp209
g40
a(lp210
aa(lp211
g49
a(lp212
aa(lp213
g52
a(lp214
aa(lp215
g55
a(lp216
aa(lp217
g58
a(lp218
aa(lp219
g61
a(lp220
aa(lp221
g64
a(lp222
aatp223
Rp224
sg68
g1
sg69
I2
sg70
(lp225
sba(iHistoryObjects
State
p226
(dp227
g5
(lp228
sg7
(lp229
(iHistoryObjects
Message
p230
(dp231
g78
S'n005'
p232
sg80
S'n004'
p233
sg81
(lp234
S'n005'
p235
aS'n005'
p236
asg83
I1
sg84
S'defender.advert'
p237
sg86
S'2013-09-24 18:09:20.031'
p238
sg88
I36
sbasg9
g10
((lp239
(lp240
S'defender.best_cost'
p241
a(lp242
(lp243
S'n005'
p244
aS'4'
p245
aaaa(lp246
S'defender.best_local_pref'
p247
a(lp248
(lp249
S'n005'
p250
aS'20'
p251
aaaa(lp252
S'defender.best_next_hop'
p253
a(lp254
(lp255
S'n005'
p256
aS'n005'
p257
aaaa(lp258
S'defender.policy'
p259
a(lp260
(lp261
S'n002n005'
p262
aS'10'
p263
aa(lp264
S'n003n005'
p265
ag20
aa(lp266
S'n005'
p267
aS'20'
p268
aaaa(lp269
S'defender.rib_in'
p270
a(lp271
(lp272
S'n005'
p273
aS'n005'
p274
aS'n005'
p275
aaaa(lp276
S'defender.rib_in_changed'
p277
a(lp278
(lp279
S'n005'
p280
aS'n005'
p281
aaaa(lp282
S'defender.rib_selected'
p283
a(lp284
(lp285
S'n005'
p286
aS'n005'
p287
aS'n005'
p288
aaaa(lp289
S'neighbour'
p290
a(lp291
(lp292
S'n002'
p293
aa(lp294
S'n003'
p295
aa(lp296
S'n005'
p297
aaaa(lp298
g34
a(lp299
aa(lp300
g37
a(lp301
aa(lp302
g115
a(lp303
aa(lp304
g40
a(lp305
aa(lp306
g64
a(lp307
aatp308
Rp309
sg68
g1
sg69
I3
sg70
(lp310
(iHistoryObjects
Message
p311
(dp312
g78
S'n004'
p313
sg80
S'n002'
p314
sg81
(lp315
S'n005'
p316
aS'n004n005'
p317
asg83
I0
sg84
S'defender.advert'
p318
sg86
S'2013-09-24 18:09:24.28'
p319
sg88
I3
sba(iHistoryObjects
Message
p320
(dp321
g78
S'n004'
p322
sg80
S'n003'
p323
sg81
(lp324
S'n005'
p325
aS'n004n005'
p326
asg83
I0
sg84
S'defender.advert'
p327
sg86
S'2013-09-24 18:09:24.28'
p328
sg88
I4
sba(iHistoryObjects
Message
p329
(dp330
g78
S'n004'
p331
sg80
S'n005'
p332
sg81
(lp333
S'n005'
p334
asg83
I1
sg84
S'defender.withdraw'
p335
sg86
S'2013-09-24 18:09:24.294'
p336
sg69
I3
sg88
I5
sbasba(iHistoryObjects
State
p337
(dp338
g5
(lp339
sg7
(lp340
(iHistoryObjects
Message
p341
(dp342
g78
S'n003'
p343
sg80
S'n004'
p344
sg81
(lp345
S'n003'
p346
aS'n003'
p347
asg83
I1
sg84
S'defender.advert'
p348
sg86
S'2013-09-24 18:09:20.128'
p349
sg88
I72
sbasg9
g10
((lp350
(lp351
S'defender.policy'
p352
a(lp353
(lp354
S'n002n005'
p355
aS'10'
p356
aa(lp357
S'n003n005'
p358
ag20
aa(lp359
S'n005'
p360
aS'20'
p361
aaaa(lp362
S'defender.rib_in_changed'
p363
a(lp364
(lp365
S'n003'
p366
aS'n003'
p367
aaaa(lp368
S'neighbour'
p369
a(lp370
(lp371
S'n002'
p372
aa(lp373
S'n003'
p374
aaaa(lp375
g34
a(lp376
aa(lp377
g37
a(lp378
aa(lp379
g115
a(lp380
aa(lp381
g40
a(lp382
aa(lp383
g49
a(lp384
aa(lp385
g52
a(lp386
aa(lp387
g55
a(lp388
aa(lp389
g58
a(lp390
aa(lp391
g61
a(lp392
aa(lp393
g64
a(lp394
aatp395
Rp396
sg68
g1
sg69
I4
sg70
(lp397
(iHistoryObjects
Message
p398
(dp399
g78
S'n004'
p400
sg80
S'n002'
p401
sg81
(lp402
S'n005'
p403
asg83
I0
sg84
S'defender.withdraw'
p404
sg86
S'2013-09-24 18:09:34.233'
p405
sg88
I6
sba(iHistoryObjects
Message
p406
(dp407
g78
S'n004'
p408
sg80
S'n003'
p409
sg81
(lp410
S'n005'
p411
asg83
I0
sg84
S'defender.withdraw'
p412
sg86
S'2013-09-24 18:09:34.233'
p413
sg88
I7
sbasba(iHistoryObjects
State
p414
(dp415
g5
(lp416
sg7
(lp417
(iHistoryObjects
Message
p418
(dp419
g78
S'n003'
p420
sg80
S'n004'
p421
sg81
(lp422
S'n005'
p423
aS'n003n005'
p424
asg83
I1
sg84
S'defender.advert'
p425
sg86
S'2013-09-24 18:09:22.231'
p426
sg88
I75
sbasg9
g10
((lp427
(lp428
S'defender.best_cost'
p429
a(lp430
(lp431
S'n005'
p432
aS'8'
p433
aaaa(lp434
S'defender.best_local_pref'
p435
a(lp436
(lp437
S'n005'
p438
ag20
aaaa(lp439
S'defender.best_next_hop'
p440
a(lp441
(lp442
S'n005'
p443
aS'n003'
p444
aaaa(lp445
S'defender.policy'
p446
a(lp447
(lp448
S'n002n005'
p449
aS'10'
p450
aa(lp451
S'n003n005'
p452
ag20
aa(lp453
S'n005'
p454
aS'20'
p455
aaaa(lp456
S'defender.rib_in'
p457
a(lp458
(lp459
S'n005'
p460
aS'n003'
p461
aS'n003n005'
p462
aaaa(lp463
S'defender.rib_in_changed'
p464
a(lp465
(lp466
S'n005'
p467
aS'n003'
p468
aaaa(lp469
S'defender.rib_selected'
p470
a(lp471
(lp472
S'n005'
p473
aS'n003'
p474
aS'n003n005'
p475
aaaa(lp476
S'neighbour'
p477
a(lp478
(lp479
S'n002'
p480
aa(lp481
S'n003'
p482
aaaa(lp483
g34
a(lp484
aa(lp485
g37
a(lp486
aa(lp487
g115
a(lp488
aa(lp489
g40
a(lp490
aa(lp491
g64
a(lp492
aatp493
Rp494
sg68
g1
sg69
I5
sg70
(lp495
(iHistoryObjects
Message
p496
(dp497
g78
S'n004'
p498
sg80
S'n002'
p499
sg81
(lp500
S'n005'
p501
aS'n004n003n005'
p502
asg83
I0
sg84
S'defender.advert'
p503
sg86
S'2013-09-24 18:09:35.874'
p504
sg88
I8
sba(iHistoryObjects
Message
p505
(dp506
g78
S'n004'
p507
sg80
S'n003'
p508
sg81
(lp509
S'n005'
p510
asg83
I0
sg84
S'defender.withdraw'
p511
sg86
S'2013-09-24 18:09:35.889'
p512
sg88
I9
sbasba(iHistoryObjects
State
p513
(dp514
g5
(lp515
sg7
(lp516
(iHistoryObjects
Message
p517
(dp518
g78
S'n002'
p519
sg80
S'n004'
p520
sg81
(lp521
S'n005'
p522
aS'n002n005'
p523
asg83
I1
sg84
S'defender.advert'
p524
sg86
S'2013-09-24 18:09:22.254'
p525
sg88
I42
sbasg9
g10
((lp526
(lp527
S'defender.best_cost'
p528
a(lp529
(lp530
S'n005'
p531
ag433
aaaa(lp532
S'defender.best_local_pref'
p533
a(lp534
(lp535
S'n005'
p536
aS'10'
p537
aaaa(lp538
S'defender.best_next_hop'
p539
a(lp540
(lp541
S'n005'
p542
aS'n002'
p543
aaaa(lp544
S'defender.policy'
p545
a(lp546
(lp547
S'n002n005'
p548
aS'10'
p549
aa(lp550
S'n003n005'
p551
ag20
aa(lp552
S'n005'
p553
aS'20'
p554
aaaa(lp555
S'defender.rib_in'
p556
a(lp557
(lp558
S'n005'
p559
aS'n003'
p560
aS'n003n005'
p561
aa(lp562
S'n005'
p563
aS'n002'
p564
aS'n002n005'
p565
aaaa(lp566
S'defender.rib_in_changed'
p567
a(lp568
(lp569
S'n005'
p570
aS'n002'
p571
aaaa(lp572
S'defender.rib_selected'
p573
a(lp574
(lp575
S'n005'
p576
aS'n002'
p577
aS'n002n005'
p578
aaaa(lp579
S'neighbour'
p580
a(lp581
(lp582
S'n002'
p583
aa(lp584
S'n003'
p585
aaaa(lp586
g34
a(lp587
aa(lp588
g37
a(lp589
aa(lp590
g115
a(lp591
aa(lp592
g40
a(lp593
aa(lp594
g64
a(lp595
aatp596
Rp597
sg68
g1
sg69
I6
sg70
(lp598
(iHistoryObjects
Message
p599
(dp600
g78
S'n004'
p601
sg80
S'n003'
p602
sg81
(lp603
S'n005'
p604
aS'n004n002n005'
p605
asg83
I0
sg84
S'defender.advert'
p606
sg86
S'2013-09-24 18:09:37.459'
p607
sg88
I10
sba(iHistoryObjects
Message
p608
(dp609
g78
S'n004'
p610
sg80
S'n002'
p611
sg81
(lp612
S'n005'
p613
asg83
I0
sg84
S'defender.withdraw'
p614
sg86
S'2013-09-24 18:09:37.473'
p615
sg88
I11
sbasba(iHistoryObjects
State
p616
(dp617
g5
(lp618
sg7
(lp619
(iHistoryObjects
Message
p620
(dp621
g78
g79
sg80
g1
sg81
(lp622
sg83
I1
sg84
S'defender.topology_change'
p623
sg86
g87
sg88
I-1
sbasg9
g10
((lp624
(lp625
S'defender.best_cost'
p626
a(lp627
(lp628
S'n005'
p629
ag433
aaaa(lp630
S'defender.best_local_pref'
p631
a(lp632
(lp633
S'n005'
p634
aS'10'
p635
aaaa(lp636
S'defender.best_next_hop'
p637
a(lp638
(lp639
S'n005'
p640
aS'n002'
p641
aaaa(lp642
S'defender.policy'
p643
a(lp644
(lp645
S'n002n005'
p646
aS'10'
p647
aa(lp648
S'n003n005'
p649
ag20
aa(lp650
S'n005'
p651
aS'20'
p652
aaaa(lp653
S'defender.rib_in'
p654
a(lp655
(lp656
S'n005'
p657
aS'n002'
p658
aS'n002n005'
p659
aa(lp660
S'n005'
p661
aS'n003'
p662
aS'n003n005'
p663
aaaa(lp664
S'defender.rib_selected'
p665
a(lp666
(lp667
S'n005'
p668
aS'n002'
p669
aS'n002n005'
p670
aaaa(lp671
S'neighbour'
p672
a(lp673
(lp674
S'n002'
p675
aa(lp676
S'n003'
p677
aaaa(lp678
g34
a(lp679
aa(lp680
g37
a(lp681
aa(lp682
g115
a(lp683
aa(lp684
g40
a(lp685
aa(lp686
g46
a(lp687
aa(lp688
g64
a(lp689
aatp690
Rp691
sg68
g1
sg69
I7
sg70
(lp692
sba(iHistoryObjects
State
p693
(dp694
g5
(lp695
sg7
(lp696
(iHistoryObjects
Message
p697
(dp698
g78
S'n002'
p699
sg80
S'n004'
p700
sg81
(lp701
S'n005'
p702
aS'n002n001n005'
p703
asg83
I1
sg84
S'defender.advert'
p704
sg86
S'2013-09-24 18:09:27.902'
p705
sg88
I44
sbasg9
g10
((lp706
(lp707
S'defender.best_cost'
p708
a(lp709
(lp710
S'n005'
p711
ag433
aaaa(lp712
S'defender.best_local_pref'
p713
a(lp714
(lp715
S'n005'
p716
ag20
aaaa(lp717
S'defender.best_next_hop'
p718
a(lp719
(lp720
S'n005'
p721
aS'n003'
p722
aaaa(lp723
S'defender.policy'
p724
a(lp725
(lp726
S'n002n005'
p727
aS'10'
p728
aa(lp729
S'n003n005'
p730
ag20
aa(lp731
S'n005'
p732
aS'20'
p733
aaaa(lp734
S'defender.rib_in'
p735
a(lp736
(lp737
S'n005'
p738
aS'n003'
p739
aS'n003n005'
p740
aaaa(lp741
S'defender.rib_in_changed'
p742
a(lp743
(lp744
S'n005'
p745
aS'n002'
p746
aaaa(lp747
S'defender.rib_selected'
p748
a(lp749
(lp750
S'n005'
p751
aS'n003'
p752
aS'n003n005'
p753
aaaa(lp754
S'neighbour'
p755
a(lp756
(lp757
S'n002'
p758
aa(lp759
S'n003'
p760
aaaa(lp761
g34
a(lp762
aa(lp763
g37
a(lp764
aa(lp765
g115
a(lp766
aa(lp767
g40
a(lp768
aa(lp769
g64
a(lp770
aatp771
Rp772
sg68
g1
sg69
I8
sg70
(lp773
(iHistoryObjects
Message
p774
(dp775
g78
S'n004'
p776
sg80
S'n002'
p777
sg81
(lp778
S'n005'
p779
aS'n004n003n005'
p780
asg83
I0
sg84
S'defender.advert'
p781
sg86
S'2013-09-24 18:09:43.325'
p782
sg88
I12
sba(iHistoryObjects
Message
p783
(dp784
g78
S'n004'
p785
sg80
S'n003'
p786
sg81
(lp787
S'n005'
p788
asg83
I0
sg84
S'defender.withdraw'
p789
sg86
S'2013-09-24 18:09:43.336'
p790
sg88
I13
sbasba(iHistoryObjects
State
p791
(dp792
g5
(lp793
sg7
(lp794
(iHistoryObjects
Message
p795
(dp796
g78
g79
sg80
g1
sg81
(lp797
sg83
I1
sg84
S'defender.topology_change'
p798
sg86
g87
sg88
I-1
sbasg9
g10
((lp799
(lp800
S'defender.best_cost'
p801
a(lp802
(lp803
S'n005'
p804
ag433
aaaa(lp805
S'defender.best_local_pref'
p806
a(lp807
(lp808
S'n005'
p809
ag20
aaaa(lp810
S'defender.best_next_hop'
p811
a(lp812
(lp813
S'n005'
p814
aS'n003'
p815
aaaa(lp816
S'defender.policy'
p817
a(lp818
(lp819
S'n002n005'
p820
aS'10'
p821
aa(lp822
S'n003n005'
p823
ag20
aa(lp824
S'n005'
p825
aS'20'
p826
aaaa(lp827
S'defender.rib_in'
p828
a(lp829
(lp830
S'n005'
p831
aS'n003'
p832
aS'n003n005'
p833
aaaa(lp834
S'defender.rib_selected'
p835
a(lp836
(lp837
S'n005'
p838
aS'n003'
p839
aS'n003n005'
p840
aaaa(lp841
S'neighbour'
p842
a(lp843
(lp844
S'n002'
p845
aa(lp846
S'n003'
p847
aaaa(lp848
g34
a(lp849
aa(lp850
g37
a(lp851
aa(lp852
g115
a(lp853
aa(lp854
g40
a(lp855
aa(lp856
g46
a(lp857
aa(lp858
g64
a(lp859
aatp860
Rp861
sg68
g1
sg69
I9
sg70
(lp862
sba(iHistoryObjects
State
p863
(dp864
g5
(lp865
sg7
(lp866
(iHistoryObjects
Message
p867
(dp868
g78
S'n003'
p869
sg80
S'n004'
p870
sg81
(lp871
S'n005'
p872
asg83
I1
sg84
S'defender.withdraw'
p873
sg86
S'2013-09-24 18:09:39.373'
p874
sg88
I78
sbasg9
g10
((lp875
(lp876
S'defender.policy'
p877
a(lp878
(lp879
S'n002n005'
p880
aS'10'
p881
aa(lp882
S'n003n005'
p883
ag20
aa(lp884
S'n005'
p885
aS'20'
p886
aaaa(lp887
S'defender.rib_in_changed'
p888
a(lp889
(lp890
S'n005'
p891
aS'n003'
p892
aaaa(lp893
S'neighbour'
p894
a(lp895
(lp896
S'n002'
p897
aa(lp898
S'n003'
p899
aaaa(lp900
g34
a(lp901
aa(lp902
g37
a(lp903
aa(lp904
g115
a(lp905
aa(lp906
g40
a(lp907
aa(lp908
g49
a(lp909
aa(lp910
g52
a(lp911
aa(lp912
g55
a(lp913
aa(lp914
g58
a(lp915
aa(lp916
g61
a(lp917
aa(lp918
g64
a(lp919
aatp920
Rp921
sg68
g1
sg69
I10
sg70
(lp922
(iHistoryObjects
Message
p923
(dp924
g78
S'n004'
p925
sg80
S'n002'
p926
sg81
(lp927
S'n005'
p928
asg83
I0
sg84
S'defender.withdraw'
p929
sg86
S'2013-09-24 18:09:47.754'
p930
sg88
I14
sba(iHistoryObjects
Message
p931
(dp932
g78
S'n004'
p933
sg80
S'n003'
p934
sg81
(lp935
S'n005'
p936
asg83
I0
sg84
S'defender.withdraw'
p937
sg86
S'2013-09-24 18:09:47.754'
p938
sg88
I15
sbasba(iHistoryObjects
State
p939
(dp940
g5
(lp941
sg7
(lp942
(iHistoryObjects
Message
p943
(dp944
g78
S'n002'
p945
sg80
S'n004'
p946
sg81
(lp947
S'n005'
p948
aS'n002n005'
p949
asg83
I1
sg84
S'defender.advert'
p950
sg86
S'2013-09-24 18:09:42.561'
p951
sg88
I48
sbasg9
g10
((lp952
(lp953
S'defender.best_cost'
p954
a(lp955
(lp956
S'n005'
p957
ag433
aaaa(lp958
S'defender.best_local_pref'
p959
a(lp960
(lp961
S'n005'
p962
aS'10'
p963
aaaa(lp964
S'defender.best_next_hop'
p965
a(lp966
(lp967
S'n005'
p968
aS'n002'
p969
aaaa(lp970
S'defender.policy'
p971
a(lp972
(lp973
S'n002n005'
p974
aS'10'
p975
aa(lp976
S'n003n005'
p977
ag20
aa(lp978
S'n005'
p979
aS'20'
p980
aaaa(lp981
S'defender.rib_in'
p982
a(lp983
(lp984
S'n005'
p985
aS'n002'
p986
aS'n002n005'
p987
aaaa(lp988
S'defender.rib_in_changed'
p989
a(lp990
(lp991
S'n005'
p992
aS'n002'
p993
aaaa(lp994
S'defender.rib_selected'
p995
a(lp996
(lp997
S'n005'
p998
aS'n002'
p999
aS'n002n005'
p1000
aaaa(lp1001
S'neighbour'
p1002
a(lp1003
(lp1004
S'n002'
p1005
aa(lp1006
S'n003'
p1007
aaaa(lp1008
g34
a(lp1009
aa(lp1010
g37
a(lp1011
aa(lp1012
g115
a(lp1013
aa(lp1014
g40
a(lp1015
aa(lp1016
g64
a(lp1017
aatp1018
Rp1019
sg68
g1
sg69
I12
sg70
(lp1020
(iHistoryObjects
Message
p1021
(dp1022
g78
S'n004'
p1023
sg80
S'n003'
p1024
sg81
(lp1025
S'n005'
p1026
aS'n004n002n005'
p1027
asg83
I0
sg84
S'defender.advert'
p1028
sg86
S'2013-09-24 18:09:50.743'
p1029
sg88
I16
sba(iHistoryObjects
Message
p1030
(dp1031
g78
S'n004'
p1032
sg80
S'n002'
p1033
sg81
(lp1034
S'n005'
p1035
asg83
I0
sg84
S'defender.withdraw'
p1036
sg86
S'2013-09-24 18:09:50.755'
p1037
sg88
I17
sbasba(iHistoryObjects
State
p1038
(dp1039
g5
(lp1040
sg7
(lp1041
(iHistoryObjects
Message
p1042
(dp1043
g78
S'n003'
p1044
sg80
S'n004'
p1045
sg81
(lp1046
S'n005'
p1047
aS'n003n005'
p1048
asg83
I1
sg84
S'defender.advert'
p1049
sg86
S'2013-09-24 18:09:44.003'
p1050
sg88
I81
sbasg9
g10
((lp1051
(lp1052
S'defender.best_cost'
p1053
a(lp1054
(lp1055
S'n005'
p1056
ag433
aaaa(lp1057
S'defender.best_local_pref'
p1058
a(lp1059
(lp1060
S'n005'
p1061
aS'10'
p1062
aaaa(lp1063
S'defender.best_next_hop'
p1064
a(lp1065
(lp1066
S'n005'
p1067
aS'n002'
p1068
aaaa(lp1069
S'defender.policy'
p1070
a(lp1071
(lp1072
S'n002n005'
p1073
aS'10'
p1074
aa(lp1075
S'n003n005'
p1076
ag20
aa(lp1077
S'n005'
p1078
aS'20'
p1079
aaaa(lp1080
S'defender.rib_in'
p1081
a(lp1082
(lp1083
S'n005'
p1084
aS'n002'
p1085
aS'n002n005'
p1086
aa(lp1087
S'n005'
p1088
aS'n003'
p1089
aS'n003n005'
p1090
aaaa(lp1091
S'defender.rib_in_changed'
p1092
a(lp1093
(lp1094
S'n005'
p1095
aS'n003'
p1096
aaaa(lp1097
S'defender.rib_selected'
p1098
a(lp1099
(lp1100
S'n005'
p1101
aS'n002'
p1102
aS'n002n005'
p1103
aaaa(lp1104
S'neighbour'
p1105
a(lp1106
(lp1107
S'n002'
p1108
aa(lp1109
S'n003'
p1110
aaaa(lp1111
g34
a(lp1112
aa(lp1113
g37
a(lp1114
aa(lp1115
g115
a(lp1116
aa(lp1117
g40
a(lp1118
aa(lp1119
g64
a(lp1120
aatp1121
Rp1122
sg68
g1
sg69
I13
sg70
(lp1123
sba(iHistoryObjects
State
p1124
(dp1125
g5
(lp1126
sg7
(lp1127
(iHistoryObjects
Message
p1128
(dp1129
g78
S'n002'
p1130
sg80
S'n004'
p1131
sg81
(lp1132
S'n005'
p1133
aS'n002n001n005'
p1134
asg83
I1
sg84
S'defender.advert'
p1135
sg86
S'2013-09-24 18:09:47.064'
p1136
sg88
I50
sbasg9
g10
((lp1137
(lp1138
S'defender.best_cost'
p1139
a(lp1140
(lp1141
S'n005'
p1142
ag433
aaaa(lp1143
S'defender.best_local_pref'
p1144
a(lp1145
(lp1146
S'n005'
p1147
ag20
aaaa(lp1148
S'defender.best_next_hop'
p1149
a(lp1150
(lp1151
S'n005'
p1152
aS'n003'
p1153
aaaa(lp1154
S'defender.policy'
p1155
a(lp1156
(lp1157
S'n002n005'
p1158
aS'10'
p1159
aa(lp1160
S'n003n005'
p1161
ag20
aa(lp1162
S'n005'
p1163
aS'20'
p1164
aaaa(lp1165
S'defender.rib_in'
p1166
a(lp1167
(lp1168
S'n005'
p1169
aS'n003'
p1170
aS'n003n005'
p1171
aaaa(lp1172
S'defender.rib_in_changed'
p1173
a(lp1174
(lp1175
S'n005'
p1176
aS'n002'
p1177
aaaa(lp1178
S'defender.rib_selected'
p1179
a(lp1180
(lp1181
S'n005'
p1182
aS'n003'
p1183
aS'n003n005'
p1184
aaaa(lp1185
S'neighbour'
p1186
a(lp1187
(lp1188
S'n002'
p1189
aa(lp1190
S'n003'
p1191
aaaa(lp1192
g34
a(lp1193
aa(lp1194
g37
a(lp1195
aa(lp1196
g115
a(lp1197
aa(lp1198
g40
a(lp1199
aa(lp1200
g64
a(lp1201
aatp1202
Rp1203
sg68
g1
sg69
I15
sg70
(lp1204
(iHistoryObjects
Message
p1205
(dp1206
g78
S'n004'
p1207
sg80
S'n002'
p1208
sg81
(lp1209
S'n005'
p1210
aS'n004n003n005'
p1211
asg83
I0
sg84
S'defender.advert'
p1212
sg86
S'2013-09-24 18:09:56.468'
p1213
sg88
I18
sba(iHistoryObjects
Message
p1214
(dp1215
g78
S'n004'
p1216
sg80
S'n003'
p1217
sg81
(lp1218
S'n005'
p1219
asg83
I0
sg84
S'defender.withdraw'
p1220
sg86
S'2013-09-24 18:09:56.474'
p1221
sg88
I19
sbasba(iHistoryObjects
State
p1222
(dp1223
g5
(lp1224
sg7
(lp1225
(iHistoryObjects
Message
p1226
(dp1227
g78
S'n003'
p1228
sg80
S'n004'
p1229
sg81
(lp1230
S'n005'
p1231
asg83
I1
sg84
S'defender.withdraw'
p1232
sg86
S'2013-09-24 18:09:51.326'
p1233
sg88
I84
sbasg9
g10
((lp1234
(lp1235
S'defender.policy'
p1236
a(lp1237
(lp1238
S'n002n005'
p1239
aS'10'
p1240
aa(lp1241
S'n003n005'
p1242
ag20
aa(lp1243
S'n005'
p1244
aS'20'
p1245
aaaa(lp1246
S'defender.rib_in_changed'
p1247
a(lp1248
(lp1249
S'n005'
p1250
aS'n003'
p1251
aaaa(lp1252
S'neighbour'
p1253
a(lp1254
(lp1255
S'n002'
p1256
aa(lp1257
S'n003'
p1258
aaaa(lp1259
g34
a(lp1260
aa(lp1261
g37
a(lp1262
aa(lp1263
g115
a(lp1264
aa(lp1265
g40
a(lp1266
aa(lp1267
g49
a(lp1268
aa(lp1269
g52
a(lp1270
aa(lp1271
g55
a(lp1272
aa(lp1273
g58
a(lp1274
aa(lp1275
g61
a(lp1276
aa(lp1277
g64
a(lp1278
aatp1279
Rp1280
sg68
g1
sg69
I17
sg70
(lp1281
(iHistoryObjects
Message
p1282
(dp1283
g78
S'n004'
p1284
sg80
S'n002'
p1285
sg81
(lp1286
S'n005'
p1287
asg83
I0
sg84
S'defender.withdraw'
p1288
sg86
S'2013-09-24 18:09:59.225'
p1289
sg88
I20
sba(iHistoryObjects
Message
p1290
(dp1291
g78
S'n004'
p1292
sg80
S'n003'
p1293
sg81
(lp1294
S'n005'
p1295
asg83
I0
sg84
S'defender.withdraw'
p1296
sg86
S'2013-09-24 18:09:59.225'
p1297
sg88
I21
sbasba(iHistoryObjects
State
p1298
(dp1299
g5
(lp1300
sg7
(lp1301
(iHistoryObjects
Message
p1302
(dp1303
g78
S'n002'
p1304
sg80
S'n004'
p1305
sg81
(lp1306
S'n005'
p1307
aS'n002n005'
p1308
asg83
I1
sg84
S'defender.advert'
p1309
sg86
S'2013-09-24 18:09:54.37'
p1310
sg88
I54
sbasg9
g10
((lp1311
(lp1312
S'defender.best_cost'
p1313
a(lp1314
(lp1315
S'n005'
p1316
ag433
aaaa(lp1317
S'defender.best_local_pref'
p1318
a(lp1319
(lp1320
S'n005'
p1321
aS'10'
p1322
aaaa(lp1323
S'defender.best_next_hop'
p1324
a(lp1325
(lp1326
S'n005'
p1327
aS'n002'
p1328
aaaa(lp1329
S'defender.policy'
p1330
a(lp1331
(lp1332
S'n002n005'
p1333
aS'10'
p1334
aa(lp1335
S'n003n005'
p1336
ag20
aa(lp1337
S'n005'
p1338
aS'20'
p1339
aaaa(lp1340
S'defender.rib_in'
p1341
a(lp1342
(lp1343
S'n005'
p1344
aS'n002'
p1345
aS'n002n005'
p1346
aaaa(lp1347
S'defender.rib_in_changed'
p1348
a(lp1349
(lp1350
S'n005'
p1351
aS'n002'
p1352
aaaa(lp1353
S'defender.rib_selected'
p1354
a(lp1355
(lp1356
S'n005'
p1357
aS'n002'
p1358
aS'n002n005'
p1359
aaaa(lp1360
S'neighbour'
p1361
a(lp1362
(lp1363
S'n002'
p1364
aa(lp1365
S'n003'
p1366
aaaa(lp1367
g34
a(lp1368
aa(lp1369
g37
a(lp1370
aa(lp1371
g115
a(lp1372
aa(lp1373
g40
a(lp1374
aa(lp1375
g64
a(lp1376
aatp1377
Rp1378
sg68
g1
sg69
I19
sg70
(lp1379
(iHistoryObjects
Message
p1380
(dp1381
g78
S'n004'
p1382
sg80
S'n003'
p1383
sg81
(lp1384
S'n005'
p1385
aS'n004n002n005'
p1386
asg83
I0
sg84
S'defender.advert'
p1387
sg86
S'2013-09-24 18:10:01.944'
p1388
sg88
I22
sba(iHistoryObjects
Message
p1389
(dp1390
g78
S'n004'
p1391
sg80
S'n002'
p1392
sg81
(lp1393
S'n005'
p1394
asg83
I0
sg84
S'defender.withdraw'
p1395
sg86
S'2013-09-24 18:10:01.954'
p1396
sg88
I23
sbasba(iHistoryObjects
State
p1397
(dp1398
g5
(lp1399
sg7
(lp1400
(iHistoryObjects
Message
p1401
(dp1402
g78
S'n003'
p1403
sg80
S'n004'
p1404
sg81
(lp1405
S'n005'
p1406
aS'n003n005'
p1407
asg83
I1
sg84
S'defender.advert'
p1408
sg86
S'2013-09-24 18:09:56.755'
p1409
sg88
I87
sbasg9
g10
((lp1410
(lp1411
S'defender.best_cost'
p1412
a(lp1413
(lp1414
S'n005'
p1415
ag433
aaaa(lp1416
S'defender.best_local_pref'
p1417
a(lp1418
(lp1419
S'n005'
p1420
aS'10'
p1421
aaaa(lp1422
S'defender.best_next_hop'
p1423
a(lp1424
(lp1425
S'n005'
p1426
aS'n002'
p1427
aaaa(lp1428
S'defender.policy'
p1429
a(lp1430
(lp1431
S'n002n005'
p1432
aS'10'
p1433
aa(lp1434
S'n003n005'
p1435
ag20
aa(lp1436
S'n005'
p1437
aS'20'
p1438
aaaa(lp1439
S'defender.rib_in'
p1440
a(lp1441
(lp1442
S'n005'
p1443
aS'n002'
p1444
aS'n002n005'
p1445
aa(lp1446
S'n005'
p1447
aS'n003'
p1448
aS'n003n005'
p1449
aaaa(lp1450
S'defender.rib_in_changed'
p1451
a(lp1452
(lp1453
S'n005'
p1454
aS'n003'
p1455
aaaa(lp1456
S'defender.rib_selected'
p1457
a(lp1458
(lp1459
S'n005'
p1460
aS'n002'
p1461
aS'n002n005'
p1462
aaaa(lp1463
S'neighbour'
p1464
a(lp1465
(lp1466
S'n002'
p1467
aa(lp1468
S'n003'
p1469
aaaa(lp1470
g34
a(lp1471
aa(lp1472
g37
a(lp1473
aa(lp1474
g115
a(lp1475
aa(lp1476
g40
a(lp1477
aa(lp1478
g64
a(lp1479
aatp1480
Rp1481
sg68
g1
sg69
I20
sg70
(lp1482
sba(iHistoryObjects
State
p1483
(dp1484
g5
(lp1485
sg7
(lp1486
(iHistoryObjects
Message
p1487
(dp1488
g78
S'n002'
p1489
sg80
S'n004'
p1490
sg81
(lp1491
S'n005'
p1492
aS'n002n001n005'
p1493
asg83
I1
sg84
S'defender.advert'
p1494
sg86
S'2013-09-24 18:09:59.666'
p1495
sg88
I56
sbasg9
g10
((lp1496
(lp1497
S'defender.best_cost'
p1498
a(lp1499
(lp1500
S'n005'
p1501
ag433
aaaa(lp1502
S'defender.best_local_pref'
p1503
a(lp1504
(lp1505
S'n005'
p1506
ag20
aaaa(lp1507
S'defender.best_next_hop'
p1508
a(lp1509
(lp1510
S'n005'
p1511
aS'n003'
p1512
aaaa(lp1513
S'defender.policy'
p1514
a(lp1515
(lp1516
S'n002n005'
p1517
aS'10'
p1518
aa(lp1519
S'n003n005'
p1520
ag20
aa(lp1521
S'n005'
p1522
aS'20'
p1523
aaaa(lp1524
S'defender.rib_in'
p1525
a(lp1526
(lp1527
S'n005'
p1528
aS'n003'
p1529
aS'n003n005'
p1530
aaaa(lp1531
S'defender.rib_in_changed'
p1532
a(lp1533
(lp1534
S'n005'
p1535
aS'n002'
p1536
aaaa(lp1537
S'defender.rib_selected'
p1538
a(lp1539
(lp1540
S'n005'
p1541
aS'n003'
p1542
aS'n003n005'
p1543
aaaa(lp1544
S'neighbour'
p1545
a(lp1546
(lp1547
S'n002'
p1548
aa(lp1549
S'n003'
p1550
aaaa(lp1551
g34
a(lp1552
aa(lp1553
g37
a(lp1554
aa(lp1555
g115
a(lp1556
aa(lp1557
g40
a(lp1558
aa(lp1559
g64
a(lp1560
aatp1561
Rp1562
sg68
g1
sg69
I22
sg70
(lp1563
(iHistoryObjects
Message
p1564
(dp1565
g78
S'n004'
p1566
sg80
S'n002'
p1567
sg81
(lp1568
S'n005'
p1569
aS'n004n003n005'
p1570
asg83
I0
sg84
S'defender.advert'
p1571
sg86
S'2013-09-24 18:10:07.436'
p1572
sg88
I24
sba(iHistoryObjects
Message
p1573
(dp1574
g78
S'n004'
p1575
sg80
S'n003'
p1576
sg81
(lp1577
S'n005'
p1578
asg83
I0
sg84
S'defender.withdraw'
p1579
sg86
S'2013-09-24 18:10:07.445'
p1580
sg88
I25
sbasba(iHistoryObjects
State
p1581
(dp1582
g5
(lp1583
sg7
(lp1584
(iHistoryObjects
Message
p1585
(dp1586
g78
S'n003'
p1587
sg80
S'n004'
p1588
sg81
(lp1589
S'n005'
p1590
asg83
I1
sg84
S'defender.withdraw'
p1591
sg86
S'2013-09-24 18:10:04.025'
p1592
sg88
I90
sbasg9
g10
((lp1593
(lp1594
S'defender.policy'
p1595
a(lp1596
(lp1597
S'n002n005'
p1598
aS'10'
p1599
aa(lp1600
S'n003n005'
p1601
ag20
aa(lp1602
S'n005'
p1603
aS'20'
p1604
aaaa(lp1605
S'defender.rib_in_changed'
p1606
a(lp1607
(lp1608
S'n005'
p1609
aS'n003'
p1610
aaaa(lp1611
S'neighbour'
p1612
a(lp1613
(lp1614
S'n002'
p1615
aa(lp1616
S'n003'
p1617
aaaa(lp1618
g34
a(lp1619
aa(lp1620
g37
a(lp1621
aa(lp1622
g115
a(lp1623
aa(lp1624
g40
a(lp1625
aa(lp1626
g49
a(lp1627
aa(lp1628
g52
a(lp1629
aa(lp1630
g55
a(lp1631
aa(lp1632
g58
a(lp1633
aa(lp1634
g61
a(lp1635
aa(lp1636
g64
a(lp1637
aatp1638
Rp1639
sg68
g1
sg69
I24
sg70
(lp1640
(iHistoryObjects
Message
p1641
(dp1642
g78
S'n004'
p1643
sg80
S'n002'
p1644
sg81
(lp1645
S'n005'
p1646
asg83
I0
sg84
S'defender.withdraw'
p1647
sg86
S'2013-09-24 18:10:10.191'
p1648
sg88
I26
sba(iHistoryObjects
Message
p1649
(dp1650
g78
S'n004'
p1651
sg80
S'n003'
p1652
sg81
(lp1653
S'n005'
p1654
asg83
I0
sg84
S'defender.withdraw'
p1655
sg86
S'2013-09-24 18:10:10.191'
p1656
sg88
I27
sbasba(iHistoryObjects
State
p1657
(dp1658
g5
(lp1659
sg7
(lp1660
(iHistoryObjects
Message
p1661
(dp1662
g78
S'n002'
p1663
sg80
S'n004'
p1664
sg81
(lp1665
S'n005'
p1666
aS'n002n005'
p1667
asg83
I1
sg84
S'defender.advert'
p1668
sg86
S'2013-09-24 18:10:07.05'
p1669
sg88
I60
sbasg9
g10
((lp1670
(lp1671
S'defender.best_cost'
p1672
a(lp1673
(lp1674
S'n005'
p1675
ag433
aaaa(lp1676
S'defender.best_local_pref'
p1677
a(lp1678
(lp1679
S'n005'
p1680
aS'10'
p1681
aaaa(lp1682
S'defender.best_next_hop'
p1683
a(lp1684
(lp1685
S'n005'
p1686
aS'n002'
p1687
aaaa(lp1688
S'defender.policy'
p1689
a(lp1690
(lp1691
S'n002n005'
p1692
aS'10'
p1693
aa(lp1694
S'n003n005'
p1695
ag20
aa(lp1696
S'n005'
p1697
aS'20'
p1698
aaaa(lp1699
S'defender.rib_in'
p1700
a(lp1701
(lp1702
S'n005'
p1703
aS'n002'
p1704
aS'n002n005'
p1705
aaaa(lp1706
S'defender.rib_in_changed'
p1707
a(lp1708
(lp1709
S'n005'
p1710
aS'n002'
p1711
aaaa(lp1712
S'defender.rib_selected'
p1713
a(lp1714
(lp1715
S'n005'
p1716
aS'n002'
p1717
aS'n002n005'
p1718
aaaa(lp1719
S'neighbour'
p1720
a(lp1721
(lp1722
S'n002'
p1723
aa(lp1724
S'n003'
p1725
aaaa(lp1726
g34
a(lp1727
aa(lp1728
g37
a(lp1729
aa(lp1730
g115
a(lp1731
aa(lp1732
g40
a(lp1733
aa(lp1734
g64
a(lp1735
aatp1736
Rp1737
sg68
g1
sg69
I26
sg70
(lp1738
(iHistoryObjects
Message
p1739
(dp1740
g78
S'n004'
p1741
sg80
S'n003'
p1742
sg81
(lp1743
S'n005'
p1744
aS'n004n002n005'
p1745
asg83
I0
sg84
S'defender.advert'
p1746
sg86
S'2013-09-24 18:10:12.942'
p1747
sg88
I28
sba(iHistoryObjects
Message
p1748
(dp1749
g78
S'n004'
p1750
sg80
S'n002'
p1751
sg81
(lp1752
S'n005'
p1753
asg83
I0
sg84
S'defender.withdraw'
p1754
sg86
S'2013-09-24 18:10:12.95'
p1755
sg88
I29
sbasba(iHistoryObjects
State
p1756
(dp1757
g5
(lp1758
sg7
(lp1759
(iHistoryObjects
Message
p1760
(dp1761
g78
S'n003'
p1762
sg80
S'n004'
p1763
sg81
(lp1764
S'n005'
p1765
aS'n003n005'
p1766
asg83
I1
sg84
S'defender.advert'
p1767
sg86
S'2013-09-24 18:10:08.316'
p1768
sg88
I93
sbasg9
g10
((lp1769
(lp1770
S'defender.best_cost'
p1771
a(lp1772
(lp1773
S'n005'
p1774
ag433
aaaa(lp1775
S'defender.best_local_pref'
p1776
a(lp1777
(lp1778
S'n005'
p1779
aS'10'
p1780
aaaa(lp1781
S'defender.best_next_hop'
p1782
a(lp1783
(lp1784
S'n005'
p1785
aS'n002'
p1786
aaaa(lp1787
S'defender.policy'
p1788
a(lp1789
(lp1790
S'n002n005'
p1791
aS'10'
p1792
aa(lp1793
S'n003n005'
p1794
ag20
aa(lp1795
S'n005'
p1796
aS'20'
p1797
aaaa(lp1798
S'defender.rib_in'
p1799
a(lp1800
(lp1801
S'n005'
p1802
aS'n002'
p1803
aS'n002n005'
p1804
aa(lp1805
S'n005'
p1806
aS'n003'
p1807
aS'n003n005'
p1808
aaaa(lp1809
S'defender.rib_in_changed'
p1810
a(lp1811
(lp1812
S'n005'
p1813
aS'n003'
p1814
aaaa(lp1815
S'defender.rib_selected'
p1816
a(lp1817
(lp1818
S'n005'
p1819
aS'n002'
p1820
aS'n002n005'
p1821
aaaa(lp1822
S'neighbour'
p1823
a(lp1824
(lp1825
S'n002'
p1826
aa(lp1827
S'n003'
p1828
aaaa(lp1829
g34
a(lp1830
aa(lp1831
g37
a(lp1832
aa(lp1833
g115
a(lp1834
aa(lp1835
g40
a(lp1836
aa(lp1837
g64
a(lp1838
aatp1839
Rp1840
sg68
g1
sg69
I27
sg70
(lp1841
sba(iHistoryObjects
State
p1842
(dp1843
g5
(lp1844
sg7
(lp1845
(iHistoryObjects
Message
p1846
(dp1847
g78
S'n002'
p1848
sg80
S'n004'
p1849
sg81
(lp1850
S'n005'
p1851
aS'n002n001n005'
p1852
asg83
I1
sg84
S'defender.advert'
p1853
sg86
S'2013-09-24 18:10:11.279'
p1854
sg88
I62
sbasg9
g10
((lp1855
(lp1856
S'defender.best_cost'
p1857
a(lp1858
(lp1859
S'n005'
p1860
ag433
aaaa(lp1861
S'defender.best_local_pref'
p1862
a(lp1863
(lp1864
S'n005'
p1865
ag20
aaaa(lp1866
S'defender.best_next_hop'
p1867
a(lp1868
(lp1869
S'n005'
p1870
aS'n003'
p1871
aaaa(lp1872
S'defender.policy'
p1873
a(lp1874
(lp1875
S'n002n005'
p1876
aS'10'
p1877
aa(lp1878
S'n003n005'
p1879
ag20
aa(lp1880
S'n005'
p1881
aS'20'
p1882
aaaa(lp1883
S'defender.rib_in'
p1884
a(lp1885
(lp1886
S'n005'
p1887
aS'n003'
p1888
aS'n003n005'
p1889
aaaa(lp1890
S'defender.rib_in_changed'
p1891
a(lp1892
(lp1893
S'n005'
p1894
aS'n002'
p1895
aaaa(lp1896
S'defender.rib_selected'
p1897
a(lp1898
(lp1899
S'n005'
p1900
aS'n003'
p1901
aS'n003n005'
p1902
aaaa(lp1903
S'neighbour'
p1904
a(lp1905
(lp1906
S'n002'
p1907
aa(lp1908
S'n003'
p1909
aaaa(lp1910
g34
a(lp1911
aa(lp1912
g37
a(lp1913
aa(lp1914
g115
a(lp1915
aa(lp1916
g40
a(lp1917
aa(lp1918
g64
a(lp1919
aatp1920
Rp1921
sg68
g1
sg69
I29
sg70
(lp1922
(iHistoryObjects
Message
p1923
(dp1924
g78
S'n004'
p1925
sg80
S'n002'
p1926
sg81
(lp1927
S'n005'
p1928
aS'n004n003n005'
p1929
asg83
I0
sg84
S'defender.advert'
p1930
sg86
S'2013-09-24 18:10:18.624'
p1931
sg88
I30
sba(iHistoryObjects
Message
p1932
(dp1933
g78
S'n004'
p1934
sg80
S'n003'
p1935
sg81
(lp1936
S'n005'
p1937
asg83
I0
sg84
S'defender.withdraw'
p1938
sg86
S'2013-09-24 18:10:18.633'
p1939
sg88
I31
sbasba(iHistoryObjects
State
p1940
(dp1941
g5
(lp1942
sg7
(lp1943
(iHistoryObjects
Message
p1944
(dp1945
g78
S'n003'
p1946
sg80
S'n004'
p1947
sg81
(lp1948
S'n005'
p1949
asg83
I1
sg84
S'defender.withdraw'
p1950
sg86
S'2013-09-24 18:10:15.227'
p1951
sg88
I96
sbasg9
g10
((lp1952
(lp1953
S'defender.policy'
p1954
a(lp1955
(lp1956
S'n002n005'
p1957
aS'10'
p1958
aa(lp1959
S'n003n005'
p1960
ag20
aa(lp1961
S'n005'
p1962
aS'20'
p1963
aaaa(lp1964
S'defender.rib_in_changed'
p1965
a(lp1966
(lp1967
S'n005'
p1968
aS'n003'
p1969
aaaa(lp1970
S'neighbour'
p1971
a(lp1972
(lp1973
S'n002'
p1974
aa(lp1975
S'n003'
p1976
aaaa(lp1977
g34
a(lp1978
aa(lp1979
g37
a(lp1980
aa(lp1981
g115
a(lp1982
aa(lp1983
g40
a(lp1984
aa(lp1985
g49
a(lp1986
aa(lp1987
g52
a(lp1988
aa(lp1989
g55
a(lp1990
aa(lp1991
g58
a(lp1992
aa(lp1993
g61
a(lp1994
aa(lp1995
g64
a(lp1996
aatp1997
Rp1998
sg68
g1
sg69
I31
sg70
(lp1999
(iHistoryObjects
Message
p2000
(dp2001
g78
S'n004'
p2002
sg80
S'n002'
p2003
sg81
(lp2004
S'n005'
p2005
asg83
I1
sg84
S'defender.withdraw'
p2006
sg86
S'2013-09-24 18:10:21.51'
p2007
sg69
I31
sg88
I32
sba(iHistoryObjects
Message
p2008
(dp2009
g78
S'n004'
p2010
sg80
S'n003'
p2011
sg81
(lp2012
S'n005'
p2013
asg83
I1
sg84
S'defender.withdraw'
p2014
sg86
S'2013-09-24 18:10:21.51'
p2015
sg69
I31
sg88
I33
sbasbasS'n005'
p2016
(lp2017
(iHistoryObjects
State
p2018
(dp2019
g5
(lp2020
sg7
(lp2021
sg9
g10
((lp2022
(lp2023
S'neighbour'
p2024
a(lp2025
(lp2026
S'n001'
p2027
aa(lp2028
S'n002'
p2029
aa(lp2030
S'n003'
p2031
aa(lp2032
S'n004'
p2033
aaaa(lp2034
S'defender.cdel_neighbour'
p2035
a(lp2036
aa(lp2037
S'defender.cadd_neighbour'
p2038
a(lp2039
aa(lp2040
S'defender.cadd_policy'
p2041
a(lp2042
aa(lp2043
S'defender.cdel_policy'
p2044
a(lp2045
aa(lp2046
S'defender.policy'
p2047
a(lp2048
aa(lp2049
S'defender.rib_in_changed'
p2050
a(lp2051
aa(lp2052
S'defender.rib_in'
p2053
a(lp2054
aa(lp2055
S'defender.best_local_pref'
p2056
a(lp2057
aa(lp2058
S'defender.best_cost'
p2059
a(lp2060
aa(lp2061
S'defender.best_next_hop'
p2062
a(lp2063
aa(lp2064
S'defender.rib_selected'
p2065
a(lp2066
aa(lp2067
S'defender.deleted'
p2068
a(lp2069
aatp2070
Rp2071
sg68
g2016
sg69
I0
sg70
(lp2072
sba(iHistoryObjects
State
p2073
(dp2074
g5
(lp2075
sg7
(lp2076
(iHistoryObjects
Message
p2077
(dp2078
g78
g79
sg80
g2016
sg81
(lp2079
sg83
I1
sg84
S'defender.start'
p2080
sg86
g87
sg88
I-1
sbasg9
g10
((lp2081
(lp2082
S'neighbour'
p2083
a(lp2084
(lp2085
S'n001'
p2086
aa(lp2087
S'n002'
p2088
aa(lp2089
S'n003'
p2090
aa(lp2091
S'n004'
p2092
aaaa(lp2093
g2035
a(lp2094
aa(lp2095
g2038
a(lp2096
aa(lp2097
g2041
a(lp2098
aa(lp2099
g2044
a(lp2100
aa(lp2101
g2047
a(lp2102
aa(lp2103
g2050
a(lp2104
aa(lp2105
g2053
a(lp2106
aa(lp2107
g2056
a(lp2108
aa(lp2109
g2059
a(lp2110
aa(lp2111
g2062
a(lp2112
aa(lp2113
g2065
a(lp2114
aa(lp2115
g2068
a(lp2116
aatp2117
Rp2118
sg68
g2016
sg69
I1
sg70
(lp2119
(iHistoryObjects
Message
p2120
(dp2121
g78
S'n005'
p2122
sg80
S'n001'
p2123
sg81
(lp2124
S'n005'
p2125
aS'n005'
p2126
asg83
I0
sg84
S'defender.advert'
p2127
sg86
S'2013-09-24 18:09:20.031'
p2128
sg88
I34
sba(iHistoryObjects
Message
p2129
(dp2130
g78
S'n005'
p2131
sg80
S'n002'
p2132
sg81
(lp2133
S'n005'
p2134
aS'n005'
p2135
asg83
I0
sg84
S'defender.advert'
p2136
sg86
S'2013-09-24 18:09:20.031'
p2137
sg88
I35
sba(iHistoryObjects
Message
p2138
(dp2139
g78
S'n005'
p2140
sg80
S'n004'
p2141
sg81
(lp2142
S'n005'
p2143
aS'n005'
p2144
asg83
I0
sg84
S'defender.advert'
p2145
sg86
S'2013-09-24 18:09:20.031'
p2146
sg88
I36
sba(iHistoryObjects
Message
p2147
(dp2148
g78
S'n005'
p2149
sg80
S'n003'
p2150
sg81
(lp2151
S'n005'
p2152
aS'n005'
p2153
asg83
I0
sg84
S'defender.advert'
p2154
sg86
S'2013-09-24 18:09:20.031'
p2155
sg88
I37
sbasba(iHistoryObjects
State
p2156
(dp2157
g5
(lp2158
sg7
(lp2159
(iHistoryObjects
Message
p2160
(dp2161
g78
S'n002'
p2162
sg80
S'n005'
p2163
sg81
(lp2164
S'n002'
p2165
aS'n002'
p2166
asg83
I1
sg84
S'defender.advert'
p2167
sg86
S'2013-09-24 18:09:19.968'
p2168
sg88
I39
sbasg9
g10
((lp2169
(lp2170
S'defender.rib_in_changed'
p2171
a(lp2172
(lp2173
S'n002'
p2174
aS'n002'
p2175
aaaa(lp2176
S'neighbour'
p2177
a(lp2178
(lp2179
S'n001'
p2180
aa(lp2181
S'n002'
p2182
aa(lp2183
S'n003'
p2184
aa(lp2185
S'n004'
p2186
aaaa(lp2187
g2035
a(lp2188
aa(lp2189
g2038
a(lp2190
aa(lp2191
g2041
a(lp2192
aa(lp2193
g2044
a(lp2194
aa(lp2195
g2047
a(lp2196
aa(lp2197
g2053
a(lp2198
aa(lp2199
g2056
a(lp2200
aa(lp2201
g2059
a(lp2202
aa(lp2203
g2062
a(lp2204
aa(lp2205
g2065
a(lp2206
aa(lp2207
g2068
a(lp2208
aatp2209
Rp2210
sg68
g2016
sg69
I2
sg70
(lp2211
sba(iHistoryObjects
State
p2212
(dp2213
g5
(lp2214
sg7
(lp2215
(iHistoryObjects
Message
p2216
(dp2217
g78
S'n001'
p2218
sg80
S'n005'
p2219
sg81
(lp2220
S'n001'
p2221
aS'n001'
p2222
asg83
I1
sg84
S'defender.advert'
p2223
sg86
S'2013-09-24 18:09:20.029'
p2224
sg88
I102
sbasg9
g10
((lp2225
(lp2226
S'defender.rib_in_changed'
p2227
a(lp2228
(lp2229
S'n001'
p2230
aS'n001'
p2231
aaaa(lp2232
S'neighbour'
p2233
a(lp2234
(lp2235
S'n001'
p2236
aa(lp2237
S'n002'
p2238
aa(lp2239
S'n003'
p2240
aa(lp2241
S'n004'
p2242
aaaa(lp2243
g2035
a(lp2244
aa(lp2245
g2038
a(lp2246
aa(lp2247
g2041
a(lp2248
aa(lp2249
g2044
a(lp2250
aa(lp2251
g2047
a(lp2252
aa(lp2253
g2053
a(lp2254
aa(lp2255
g2056
a(lp2256
aa(lp2257
g2059
a(lp2258
aa(lp2259
g2062
a(lp2260
aa(lp2261
g2065
a(lp2262
aa(lp2263
g2068
a(lp2264
aatp2265
Rp2266
sg68
g2016
sg69
I3
sg70
(lp2267
sba(iHistoryObjects
State
p2268
(dp2269
g5
(lp2270
sg7
(lp2271
(iHistoryObjects
Message
p2272
(dp2273
g78
S'n003'
p2274
sg80
S'n005'
p2275
sg81
(lp2276
S'n003'
p2277
aS'n003'
p2278
asg83
I1
sg84
S'defender.advert'
p2279
sg86
S'2013-09-24 18:09:20.128'
p2280
sg88
I73
sbasg9
g10
((lp2281
(lp2282
S'defender.rib_in_changed'
p2283
a(lp2284
(lp2285
S'n003'
p2286
aS'n003'
p2287
aaaa(lp2288
S'neighbour'
p2289
a(lp2290
(lp2291
S'n001'
p2292
aa(lp2293
S'n002'
p2294
aa(lp2295
S'n003'
p2296
aaaa(lp2297
g2035
a(lp2298
aa(lp2299
g2038
a(lp2300
aa(lp2301
g2041
a(lp2302
aa(lp2303
g2044
a(lp2304
aa(lp2305
g2047
a(lp2306
aa(lp2307
g2053
a(lp2308
aa(lp2309
g2056
a(lp2310
aa(lp2311
g2059
a(lp2312
aa(lp2313
g2062
a(lp2314
aa(lp2315
g2065
a(lp2316
aa(lp2317
g2068
a(lp2318
aatp2319
Rp2320
sg68
g2016
sg69
I4
sg70
(lp2321
sba(iHistoryObjects
State
p2322
(dp2323
g5
(lp2324
sg7
(lp2325
sg9
g10
((lp2326
(lp2327
S'neighbour'
p2328
a(lp2329
(lp2330
S'n001'
p2331
aa(lp2332
S'n002'
p2333
aa(lp2334
S'n003'
p2335
aaaa(lp2336
g2035
a(lp2337
aa(lp2338
g2038
a(lp2339
aa(lp2340
g2041
a(lp2341
aa(lp2342
g2044
a(lp2343
aa(lp2344
g2047
a(lp2345
aa(lp2346
g2050
a(lp2347
aa(lp2348
g2053
a(lp2349
aa(lp2350
g2056
a(lp2351
aa(lp2352
g2059
a(lp2353
aa(lp2354
g2062
a(lp2355
aa(lp2356
g2065
a(lp2357
aa(lp2358
g2068
a(lp2359
aatp2360
Rp2361
sg68
g2016
sg69
I5
sg70
(lp2362
sba(iHistoryObjects
State
p2363
(dp2364
g5
(lp2365
sg7
(lp2366
(iHistoryObjects
Message
p2367
(dp2368
g78
S'n003'
p2369
sg80
S'n005'
p2370
sg81
(lp2371
S'n005'
p2372
asg83
I1
sg84
S'defender.withdraw'
p2373
sg86
S'2013-09-24 18:09:22.287'
p2374
sg88
I76
sbasg9
g10
((lp2375
(lp2376
S'defender.rib_in_changed'
p2377
a(lp2378
(lp2379
S'n005'
p2380
aS'n003'
p2381
aaaa(lp2382
S'neighbour'
p2383
a(lp2384
(lp2385
S'n001'
p2386
aa(lp2387
S'n002'
p2388
aa(lp2389
S'n003'
p2390
aaaa(lp2391
g2035
a(lp2392
aa(lp2393
g2038
a(lp2394
aa(lp2395
g2041
a(lp2396
aa(lp2397
g2044
a(lp2398
aa(lp2399
g2047
a(lp2400
aa(lp2401
g2053
a(lp2402
aa(lp2403
g2056
a(lp2404
aa(lp2405
g2059
a(lp2406
aa(lp2407
g2062
a(lp2408
aa(lp2409
g2065
a(lp2410
aa(lp2411
g2068
a(lp2412
aatp2413
Rp2414
sg68
g2016
sg69
I6
sg70
(lp2415
sba(iHistoryObjects
State
p2416
(dp2417
g5
(lp2418
sg7
(lp2419
(iHistoryObjects
Message
p2420
(dp2421
g78
S'n002'
p2422
sg80
S'n005'
p2423
sg81
(lp2424
S'n005'
p2425
asg83
I1
sg84
S'defender.withdraw'
p2426
sg86
S'2013-09-24 18:09:22.316'
p2427
sg88
I43
sbasg9
g10
((lp2428
(lp2429
S'defender.rib_in_changed'
p2430
a(lp2431
(lp2432
S'n005'
p2433
aS'n002'
p2434
aaaa(lp2435
S'neighbour'
p2436
a(lp2437
(lp2438
S'n001'
p2439
aa(lp2440
S'n002'
p2441
aa(lp2442
S'n003'
p2443
aaaa(lp2444
g2035
a(lp2445
aa(lp2446
g2038
a(lp2447
aa(lp2448
g2041
a(lp2449
aa(lp2450
g2044
a(lp2451
aa(lp2452
g2047
a(lp2453
aa(lp2454
g2053
a(lp2455
aa(lp2456
g2056
a(lp2457
aa(lp2458
g2059
a(lp2459
aa(lp2460
g2062
a(lp2461
aa(lp2462
g2065
a(lp2463
aa(lp2464
g2068
a(lp2465
aatp2466
Rp2467
sg68
g2016
sg69
I7
sg70
(lp2468
sba(iHistoryObjects
State
p2469
(dp2470
g5
(lp2471
sg7
(lp2472
(iHistoryObjects
Message
p2473
(dp2474
g78
S'n001'
p2475
sg80
S'n005'
p2476
sg81
(lp2477
S'n005'
p2478
asg83
I1
sg84
S'defender.withdraw'
p2479
sg86
S'2013-09-24 18:09:24.115'
p2480
sg88
I106
sbasg9
g10
((lp2481
(lp2482
S'defender.rib_in_changed'
p2483
a(lp2484
(lp2485
S'n005'
p2486
aS'n001'
p2487
aaaa(lp2488
S'neighbour'
p2489
a(lp2490
(lp2491
S'n001'
p2492
aa(lp2493
S'n002'
p2494
aa(lp2495
S'n003'
p2496
aaaa(lp2497
g2035
a(lp2498
aa(lp2499
g2038
a(lp2500
aa(lp2501
g2041
a(lp2502
aa(lp2503
g2044
a(lp2504
aa(lp2505
g2047
a(lp2506
aa(lp2507
g2053
a(lp2508
aa(lp2509
g2056
a(lp2510
aa(lp2511
g2059
a(lp2512
aa(lp2513
g2062
a(lp2514
aa(lp2515
g2065
a(lp2516
aa(lp2517
g2068
a(lp2518
aatp2519
Rp2520
sg68
g2016
sg69
I8
sg70
(lp2521
sba(iHistoryObjects
State
p2522
(dp2523
g5
(lp2524
sg7
(lp2525
sg9
g10
((lp2526
(lp2527
S'neighbour'
p2528
a(lp2529
(lp2530
S'n001'
p2531
aa(lp2532
S'n002'
p2533
aa(lp2534
S'n003'
p2535
aaaa(lp2536
g2035
a(lp2537
aa(lp2538
g2038
a(lp2539
aa(lp2540
g2041
a(lp2541
aa(lp2542
g2044
a(lp2543
aa(lp2544
g2047
a(lp2545
aa(lp2546
g2050
a(lp2547
aa(lp2548
g2053
a(lp2549
aa(lp2550
g2056
a(lp2551
aa(lp2552
g2059
a(lp2553
aa(lp2554
g2062
a(lp2555
aa(lp2556
g2065
a(lp2557
aa(lp2558
g2068
a(lp2559
aatp2560
Rp2561
sg68
g2016
sg69
I9
sg70
(lp2562
sba(iHistoryObjects
State
p2563
(dp2564
g5
(lp2565
sg7
(lp2566
sg9
g10
((lp2567
(lp2568
S'neighbour'
p2569
a(lp2570
(lp2571
S'n001'
p2572
aa(lp2573
S'n002'
p2574
aa(lp2575
S'n003'
p2576
aaaa(lp2577
g2035
a(lp2578
aa(lp2579
g2038
a(lp2580
aa(lp2581
g2041
a(lp2582
aa(lp2583
g2044
a(lp2584
aa(lp2585
g2047
a(lp2586
aa(lp2587
g2050
a(lp2588
aa(lp2589
g2053
a(lp2590
aa(lp2591
g2056
a(lp2592
aa(lp2593
g2059
a(lp2594
aa(lp2595
g2062
a(lp2596
aa(lp2597
g2065
a(lp2598
aa(lp2599
g2068
a(lp2600
aatp2601
Rp2602
sg68
g2016
sg69
I10
sg70
(lp2603
sba(iHistoryObjects
State
p2604
(dp2605
g5
(lp2606
sg7
(lp2607
(iHistoryObjects
Message
p2608
(dp2609
g78
S'n002'
p2610
sg80
S'n005'
p2611
sg81
(lp2612
S'n005'
p2613
asg83
I1
sg84
S'defender.withdraw'
p2614
sg86
S'2013-09-24 18:09:27.921'
p2615
sg88
I46
sbasg9
g10
((lp2616
(lp2617
S'defender.rib_in_changed'
p2618
a(lp2619
(lp2620
S'n005'
p2621
aS'n002'
p2622
aaaa(lp2623
S'neighbour'
p2624
a(lp2625
(lp2626
S'n001'
p2627
aa(lp2628
S'n002'
p2629
aa(lp2630
S'n003'
p2631
aaaa(lp2632
g2035
a(lp2633
aa(lp2634
g2038
a(lp2635
aa(lp2636
g2041
a(lp2637
aa(lp2638
g2044
a(lp2639
aa(lp2640
g2047
a(lp2641
aa(lp2642
g2053
a(lp2643
aa(lp2644
g2056
a(lp2645
aa(lp2646
g2059
a(lp2647
aa(lp2648
g2062
a(lp2649
aa(lp2650
g2065
a(lp2651
aa(lp2652
g2068
a(lp2653
aatp2654
Rp2655
sg68
g2016
sg69
I11
sg70
(lp2656
sba(iHistoryObjects
State
p2657
(dp2658
g5
(lp2659
sg7
(lp2660
(iHistoryObjects
Message
p2661
(dp2662
g78
g79
sg80
g2016
sg81
(lp2663
sg83
I1
sg84
S'defender.topology_change'
p2664
sg86
g87
sg88
I-1
sbasg9
g10
((lp2665
(lp2666
S'neighbour'
p2667
a(lp2668
(lp2669
S'n001'
p2670
aa(lp2671
S'n002'
p2672
aa(lp2673
S'n003'
p2674
aaaa(lp2675
g2035
a(lp2676
aa(lp2677
g2038
a(lp2678
aa(lp2679
g2041
a(lp2680
aa(lp2681
g2044
a(lp2682
aa(lp2683
g2047
a(lp2684
aa(lp2685
g2050
a(lp2686
aa(lp2687
g2053
a(lp2688
aa(lp2689
g2056
a(lp2690
aa(lp2691
g2059
a(lp2692
aa(lp2693
g2062
a(lp2694
aa(lp2695
g2065
a(lp2696
aa(lp2697
g2068
a(lp2698
aatp2699
Rp2700
sg68
g2016
sg69
I12
sg70
(lp2701
sba(iHistoryObjects
State
p2702
(dp2703
g5
(lp2704
sg7
(lp2705
(iHistoryObjects
Message
p2706
(dp2707
g78
g79
sg80
g2016
sg81
(lp2708
sg83
I1
sg84
S'defender.topology_change'
p2709
sg86
g87
sg88
I-1
sbasg9
g10
((lp2710
(lp2711
S'neighbour'
p2712
a(lp2713
(lp2714
S'n001'
p2715
aa(lp2716
S'n002'
p2717
aa(lp2718
S'n003'
p2719
aaaa(lp2720
g2035
a(lp2721
aa(lp2722
g2038
a(lp2723
aa(lp2724
g2041
a(lp2725
aa(lp2726
g2044
a(lp2727
aa(lp2728
g2047
a(lp2729
aa(lp2730
g2050
a(lp2731
aa(lp2732
g2053
a(lp2733
aa(lp2734
g2056
a(lp2735
aa(lp2736
g2059
a(lp2737
aa(lp2738
g2062
a(lp2739
aa(lp2740
g2065
a(lp2741
aa(lp2742
g2068
a(lp2743
aatp2744
Rp2745
sg68
g2016
sg69
I13
sg70
(lp2746
sba(iHistoryObjects
State
p2747
(dp2748
g5
(lp2749
sg7
(lp2750
(iHistoryObjects
Message
p2751
(dp2752
g78
S'n003'
p2753
sg80
S'n005'
p2754
sg81
(lp2755
S'n005'
p2756
asg83
I1
sg84
S'defender.withdraw'
p2757
sg86
S'2013-09-24 18:09:39.373'
p2758
sg88
I79
sbasg9
g10
((lp2759
(lp2760
S'defender.rib_in_changed'
p2761
a(lp2762
(lp2763
S'n005'
p2764
aS'n003'
p2765
aaaa(lp2766
S'neighbour'
p2767
a(lp2768
(lp2769
S'n001'
p2770
aa(lp2771
S'n002'
p2772
aa(lp2773
S'n003'
p2774
aaaa(lp2775
g2035
a(lp2776
aa(lp2777
g2038
a(lp2778
aa(lp2779
g2041
a(lp2780
aa(lp2781
g2044
a(lp2782
aa(lp2783
g2047
a(lp2784
aa(lp2785
g2053
a(lp2786
aa(lp2787
g2056
a(lp2788
aa(lp2789
g2059
a(lp2790
aa(lp2791
g2062
a(lp2792
aa(lp2793
g2065
a(lp2794
aa(lp2795
g2068
a(lp2796
aatp2797
Rp2798
sg68
g2016
sg69
I14
sg70
(lp2799
sba(iHistoryObjects
State
p2800
(dp2801
g5
(lp2802
sg7
(lp2803
(iHistoryObjects
Message
p2804
(dp2805
g78
S'n001'
p2806
sg80
S'n005'
p2807
sg81
(lp2808
S'n005'
p2809
asg83
I1
sg84
S'defender.withdraw'
p2810
sg86
S'2013-09-24 18:09:39.773'
p2811
sg88
I108
sbasg9
g10
((lp2812
(lp2813
S'defender.rib_in_changed'
p2814
a(lp2815
(lp2816
S'n005'
p2817
aS'n001'
p2818
aaaa(lp2819
S'neighbour'
p2820
a(lp2821
(lp2822
S'n001'
p2823
aa(lp2824
S'n002'
p2825
aa(lp2826
S'n003'
p2827
aaaa(lp2828
g2035
a(lp2829
aa(lp2830
g2038
a(lp2831
aa(lp2832
g2041
a(lp2833
aa(lp2834
g2044
a(lp2835
aa(lp2836
g2047
a(lp2837
aa(lp2838
g2053
a(lp2839
aa(lp2840
g2056
a(lp2841
aa(lp2842
g2059
a(lp2843
aa(lp2844
g2062
a(lp2845
aa(lp2846
g2065
a(lp2847
aa(lp2848
g2068
a(lp2849
aatp2850
Rp2851
sg68
g2016
sg69
I15
sg70
(lp2852
sba(iHistoryObjects
State
p2853
(dp2854
g5
(lp2855
sg7
(lp2856
(iHistoryObjects
Message
p2857
(dp2858
g78
S'n002'
p2859
sg80
S'n005'
p2860
sg81
(lp2861
S'n005'
p2862
asg83
I1
sg84
S'defender.withdraw'
p2863
sg86
S'2013-09-24 18:09:42.575'
p2864
sg88
I49
sbasg9
g10
((lp2865
(lp2866
S'defender.rib_in_changed'
p2867
a(lp2868
(lp2869
S'n005'
p2870
aS'n002'
p2871
aaaa(lp2872
S'neighbour'
p2873
a(lp2874
(lp2875
S'n001'
p2876
aa(lp2877
S'n002'
p2878
aa(lp2879
S'n003'
p2880
aaaa(lp2881
g2035
a(lp2882
aa(lp2883
g2038
a(lp2884
aa(lp2885
g2041
a(lp2886
aa(lp2887
g2044
a(lp2888
aa(lp2889
g2047
a(lp2890
aa(lp2891
g2053
a(lp2892
aa(lp2893
g2056
a(lp2894
aa(lp2895
g2059
a(lp2896
aa(lp2897
g2062
a(lp2898
aa(lp2899
g2065
a(lp2900
aa(lp2901
g2068
a(lp2902
aatp2903
Rp2904
sg68
g2016
sg69
I16
sg70
(lp2905
sba(iHistoryObjects
State
p2906
(dp2907
g5
(lp2908
sg7
(lp2909
(iHistoryObjects
Message
p2910
(dp2911
g78
S'n003'
p2912
sg80
S'n005'
p2913
sg81
(lp2914
S'n005'
p2915
asg83
I1
sg84
S'defender.withdraw'
p2916
sg86
S'2013-09-24 18:09:44.014'
p2917
sg88
I82
sbasg9
g10
((lp2918
(lp2919
S'defender.rib_in_changed'
p2920
a(lp2921
(lp2922
S'n005'
p2923
aS'n003'
p2924
aaaa(lp2925
S'neighbour'
p2926
a(lp2927
(lp2928
S'n001'
p2929
aa(lp2930
S'n002'
p2931
aa(lp2932
S'n003'
p2933
aaaa(lp2934
g2035
a(lp2935
aa(lp2936
g2038
a(lp2937
aa(lp2938
g2041
a(lp2939
aa(lp2940
g2044
a(lp2941
aa(lp2942
g2047
a(lp2943
aa(lp2944
g2053
a(lp2945
aa(lp2946
g2056
a(lp2947
aa(lp2948
g2059
a(lp2949
aa(lp2950
g2062
a(lp2951
aa(lp2952
g2065
a(lp2953
aa(lp2954
g2068
a(lp2955
aatp2956
Rp2957
sg68
g2016
sg69
I17
sg70
(lp2958
sba(iHistoryObjects
State
p2959
(dp2960
g5
(lp2961
sg7
(lp2962
(iHistoryObjects
Message
p2963
(dp2964
g78
S'n001'
p2965
sg80
S'n005'
p2966
sg81
(lp2967
S'n005'
p2968
asg83
I1
sg84
S'defender.withdraw'
p2969
sg86
S'2013-09-24 18:09:45.918'
p2970
sg88
I112
sbasg9
g10
((lp2971
(lp2972
S'defender.rib_in_changed'
p2973
a(lp2974
(lp2975
S'n005'
p2976
aS'n001'
p2977
aaaa(lp2978
S'neighbour'
p2979
a(lp2980
(lp2981
S'n001'
p2982
aa(lp2983
S'n002'
p2984
aa(lp2985
S'n003'
p2986
aaaa(lp2987
g2035
a(lp2988
aa(lp2989
g2038
a(lp2990
aa(lp2991
g2041
a(lp2992
aa(lp2993
g2044
a(lp2994
aa(lp2995
g2047
a(lp2996
aa(lp2997
g2053
a(lp2998
aa(lp2999
g2056
a(lp3000
aa(lp3001
g2059
a(lp3002
aa(lp3003
g2062
a(lp3004
aa(lp3005
g2065
a(lp3006
aa(lp3007
g2068
a(lp3008
aatp3009
Rp3010
sg68
g2016
sg69
I18
sg70
(lp3011
sba(iHistoryObjects
State
p3012
(dp3013
g5
(lp3014
sg7
(lp3015
(iHistoryObjects
Message
p3016
(dp3017
g78
S'n002'
p3018
sg80
S'n005'
p3019
sg81
(lp3020
S'n005'
p3021
asg83
I1
sg84
S'defender.withdraw'
p3022
sg86
S'2013-09-24 18:09:47.074'
p3023
sg88
I52
sbasg9
g10
((lp3024
(lp3025
S'defender.rib_in_changed'
p3026
a(lp3027
(lp3028
S'n005'
p3029
aS'n002'
p3030
aaaa(lp3031
S'neighbour'
p3032
a(lp3033
(lp3034
S'n001'
p3035
aa(lp3036
S'n002'
p3037
aa(lp3038
S'n003'
p3039
aaaa(lp3040
g2035
a(lp3041
aa(lp3042
g2038
a(lp3043
aa(lp3044
g2041
a(lp3045
aa(lp3046
g2044
a(lp3047
aa(lp3048
g2047
a(lp3049
aa(lp3050
g2053
a(lp3051
aa(lp3052
g2056
a(lp3053
aa(lp3054
g2059
a(lp3055
aa(lp3056
g2062
a(lp3057
aa(lp3058
g2065
a(lp3059
aa(lp3060
g2068
a(lp3061
aatp3062
Rp3063
sg68
g2016
sg69
I19
sg70
(lp3064
sba(iHistoryObjects
State
p3065
(dp3066
g5
(lp3067
sg7
(lp3068
(iHistoryObjects
Message
p3069
(dp3070
g78
S'n003'
p3071
sg80
S'n005'
p3072
sg81
(lp3073
S'n005'
p3074
asg83
I1
sg84
S'defender.withdraw'
p3075
sg86
S'2013-09-24 18:09:51.326'
p3076
sg88
I85
sbasg9
g10
((lp3077
(lp3078
S'defender.rib_in_changed'
p3079
a(lp3080
(lp3081
S'n005'
p3082
aS'n003'
p3083
aaaa(lp3084
S'neighbour'
p3085
a(lp3086
(lp3087
S'n001'
p3088
aa(lp3089
S'n002'
p3090
aa(lp3091
S'n003'
p3092
aaaa(lp3093
g2035
a(lp3094
aa(lp3095
g2038
a(lp3096
aa(lp3097
g2041
a(lp3098
aa(lp3099
g2044
a(lp3100
aa(lp3101
g2047
a(lp3102
aa(lp3103
g2053
a(lp3104
aa(lp3105
g2056
a(lp3106
aa(lp3107
g2059
a(lp3108
aa(lp3109
g2062
a(lp3110
aa(lp3111
g2065
a(lp3112
aa(lp3113
g2068
a(lp3114
aatp3115
Rp3116
sg68
g2016
sg69
I20
sg70
(lp3117
sba(iHistoryObjects
State
p3118
(dp3119
g5
(lp3120
sg7
(lp3121
(iHistoryObjects
Message
p3122
(dp3123
g78
S'n001'
p3124
sg80
S'n005'
p3125
sg81
(lp3126
S'n005'
p3127
asg83
I1
sg84
S'defender.withdraw'
p3128
sg86
S'2013-09-24 18:09:52.053'
p3129
sg88
I114
sbasg9
g10
((lp3130
(lp3131
S'defender.rib_in_changed'
p3132
a(lp3133
(lp3134
S'n005'
p3135
aS'n001'
p3136
aaaa(lp3137
S'neighbour'
p3138
a(lp3139
(lp3140
S'n001'
p3141
aa(lp3142
S'n002'
p3143
aa(lp3144
S'n003'
p3145
aaaa(lp3146
g2035
a(lp3147
aa(lp3148
g2038
a(lp3149
aa(lp3150
g2041
a(lp3151
aa(lp3152
g2044
a(lp3153
aa(lp3154
g2047
a(lp3155
aa(lp3156
g2053
a(lp3157
aa(lp3158
g2056
a(lp3159
aa(lp3160
g2059
a(lp3161
aa(lp3162
g2062
a(lp3163
aa(lp3164
g2065
a(lp3165
aa(lp3166
g2068
a(lp3167
aatp3168
Rp3169
sg68
g2016
sg69
I21
sg70
(lp3170
sba(iHistoryObjects
State
p3171
(dp3172
g5
(lp3173
sg7
(lp3174
(iHistoryObjects
Message
p3175
(dp3176
g78
S'n002'
p3177
sg80
S'n005'
p3178
sg81
(lp3179
S'n005'
p3180
asg83
I1
sg84
S'defender.withdraw'
p3181
sg86
S'2013-09-24 18:09:54.38'
p3182
sg88
I55
sbasg9
g10
((lp3183
(lp3184
S'defender.rib_in_changed'
p3185
a(lp3186
(lp3187
S'n005'
p3188
aS'n002'
p3189
aaaa(lp3190
S'neighbour'
p3191
a(lp3192
(lp3193
S'n001'
p3194
aa(lp3195
S'n002'
p3196
aa(lp3197
S'n003'
p3198
aaaa(lp3199
g2035
a(lp3200
aa(lp3201
g2038
a(lp3202
aa(lp3203
g2041
a(lp3204
aa(lp3205
g2044
a(lp3206
aa(lp3207
g2047
a(lp3208
aa(lp3209
g2053
a(lp3210
aa(lp3211
g2056
a(lp3212
aa(lp3213
g2059
a(lp3214
aa(lp3215
g2062
a(lp3216
aa(lp3217
g2065
a(lp3218
aa(lp3219
g2068
a(lp3220
aatp3221
Rp3222
sg68
g2016
sg69
I22
sg70
(lp3223
sba(iHistoryObjects
State
p3224
(dp3225
g5
(lp3226
sg7
(lp3227
(iHistoryObjects
Message
p3228
(dp3229
g78
S'n003'
p3230
sg80
S'n005'
p3231
sg81
(lp3232
S'n005'
p3233
asg83
I1
sg84
S'defender.withdraw'
p3234
sg86
S'2013-09-24 18:09:56.765'
p3235
sg88
I88
sbasg9
g10
((lp3236
(lp3237
S'defender.rib_in_changed'
p3238
a(lp3239
(lp3240
S'n005'
p3241
aS'n003'
p3242
aaaa(lp3243
S'neighbour'
p3244
a(lp3245
(lp3246
S'n001'
p3247
aa(lp3248
S'n002'
p3249
aa(lp3250
S'n003'
p3251
aaaa(lp3252
g2035
a(lp3253
aa(lp3254
g2038
a(lp3255
aa(lp3256
g2041
a(lp3257
aa(lp3258
g2044
a(lp3259
aa(lp3260
g2047
a(lp3261
aa(lp3262
g2053
a(lp3263
aa(lp3264
g2056
a(lp3265
aa(lp3266
g2059
a(lp3267
aa(lp3268
g2062
a(lp3269
aa(lp3270
g2065
a(lp3271
aa(lp3272
g2068
a(lp3273
aatp3274
Rp3275
sg68
g2016
sg69
I23
sg70
(lp3276
sba(iHistoryObjects
State
p3277
(dp3278
g5
(lp3279
sg7
(lp3280
(iHistoryObjects
Message
p3281
(dp3282
g78
S'n001'
p3283
sg80
S'n005'
p3284
sg81
(lp3285
S'n005'
p3286
asg83
I1
sg84
S'defender.withdraw'
p3287
sg86
S'2013-09-24 18:09:57.677'
p3288
sg88
I118
sbasg9
g10
((lp3289
(lp3290
S'defender.rib_in_changed'
p3291
a(lp3292
(lp3293
S'n005'
p3294
aS'n001'
p3295
aaaa(lp3296
S'neighbour'
p3297
a(lp3298
(lp3299
S'n001'
p3300
aa(lp3301
S'n002'
p3302
aa(lp3303
S'n003'
p3304
aaaa(lp3305
g2035
a(lp3306
aa(lp3307
g2038
a(lp3308
aa(lp3309
g2041
a(lp3310
aa(lp3311
g2044
a(lp3312
aa(lp3313
g2047
a(lp3314
aa(lp3315
g2053
a(lp3316
aa(lp3317
g2056
a(lp3318
aa(lp3319
g2059
a(lp3320
aa(lp3321
g2062
a(lp3322
aa(lp3323
g2065
a(lp3324
aa(lp3325
g2068
a(lp3326
aatp3327
Rp3328
sg68
g2016
sg69
I24
sg70
(lp3329
sba(iHistoryObjects
State
p3330
(dp3331
g5
(lp3332
sg7
(lp3333
(iHistoryObjects
Message
p3334
(dp3335
g78
S'n002'
p3336
sg80
S'n005'
p3337
sg81
(lp3338
S'n005'
p3339
asg83
I1
sg84
S'defender.withdraw'
p3340
sg86
S'2013-09-24 18:09:59.676'
p3341
sg88
I58
sbasg9
g10
((lp3342
(lp3343
S'defender.rib_in_changed'
p3344
a(lp3345
(lp3346
S'n005'
p3347
aS'n002'
p3348
aaaa(lp3349
S'neighbour'
p3350
a(lp3351
(lp3352
S'n001'
p3353
aa(lp3354
S'n002'
p3355
aa(lp3356
S'n003'
p3357
aaaa(lp3358
g2035
a(lp3359
aa(lp3360
g2038
a(lp3361
aa(lp3362
g2041
a(lp3363
aa(lp3364
g2044
a(lp3365
aa(lp3366
g2047
a(lp3367
aa(lp3368
g2053
a(lp3369
aa(lp3370
g2056
a(lp3371
aa(lp3372
g2059
a(lp3373
aa(lp3374
g2062
a(lp3375
aa(lp3376
g2065
a(lp3377
aa(lp3378
g2068
a(lp3379
aatp3380
Rp3381
sg68
g2016
sg69
I25
sg70
(lp3382
sbasS'n002'
p3383
(lp3384
(iHistoryObjects
State
p3385
(dp3386
g5
(lp3387
sg7
(lp3388
sg9
g10
((lp3389
(lp3390
S'defender.cadd_policy'
p3391
a(lp3392
(lp3393
S'n001n005'
p3394
aS'20'
p3395
aa(lp3396
S'n005'
p3397
aS'10'
p3398
aaaa(lp3399
S'neighbour'
p3400
a(lp3401
(lp3402
S'n001'
p3403
aa(lp3404
S'n004'
p3405
aa(lp3406
S'n005'
p3407
aaaa(lp3408
S'defender.cdel_neighbour'
p3409
a(lp3410
aa(lp3411
S'defender.cadd_neighbour'
p3412
a(lp3413
aa(lp3414
S'defender.cdel_policy'
p3415
a(lp3416
aa(lp3417
S'defender.policy'
p3418
a(lp3419
aa(lp3420
S'defender.rib_in_changed'
p3421
a(lp3422
aa(lp3423
S'defender.rib_in'
p3424
a(lp3425
aa(lp3426
S'defender.best_local_pref'
p3427
a(lp3428
aa(lp3429
S'defender.best_cost'
p3430
a(lp3431
aa(lp3432
S'defender.best_next_hop'
p3433
a(lp3434
aa(lp3435
S'defender.rib_selected'
p3436
a(lp3437
aa(lp3438
S'defender.deleted'
p3439
a(lp3440
aatp3441
Rp3442
sg68
g3383
sg69
I0
sg70
(lp3443
sba(iHistoryObjects
State
p3444
(dp3445
g5
(lp3446
sg7
(lp3447
(iHistoryObjects
Message
p3448
(dp3449
g78
g79
sg80
g3383
sg81
(lp3450
sg83
I1
sg84
S'defender.start'
p3451
sg86
g87
sg88
I-1
sbasg9
g10
((lp3452
(lp3453
S'defender.policy'
p3454
a(lp3455
(lp3456
S'n001n005'
p3457
aS'20'
p3458
aa(lp3459
S'n005'
p3460
aS'10'
p3461
aaaa(lp3462
S'neighbour'
p3463
a(lp3464
(lp3465
S'n001'
p3466
aa(lp3467
S'n004'
p3468
aa(lp3469
S'n005'
p3470
aaaa(lp3471
g3409
a(lp3472
aa(lp3473
g3412
a(lp3474
aa(lp3475
S'defender.cadd_policy'
p3476
a(lp3477
aa(lp3478
g3415
a(lp3479
aa(lp3480
g3421
a(lp3481
aa(lp3482
g3424
a(lp3483
aa(lp3484
g3427
a(lp3485
aa(lp3486
g3430
a(lp3487
aa(lp3488
g3433
a(lp3489
aa(lp3490
g3436
a(lp3491
aa(lp3492
g3439
a(lp3493
aatp3494
Rp3495
sg68
g3383
sg69
I1
sg70
(lp3496
(iHistoryObjects
Message
p3497
(dp3498
g78
S'n002'
p3499
sg80
S'n001'
p3500
sg81
(lp3501
S'n002'
p3502
aS'n002'
p3503
asg83
I0
sg84
S'defender.advert'
p3504
sg86
S'2013-09-24 18:09:19.968'
p3505
sg88
I38
sba(iHistoryObjects
Message
p3506
(dp3507
g78
S'n002'
p3508
sg80
S'n005'
p3509
sg81
(lp3510
S'n002'
p3511
aS'n002'
p3512
asg83
I0
sg84
S'defender.advert'
p3513
sg86
S'2013-09-24 18:09:19.968'
p3514
sg88
I39
sba(iHistoryObjects
Message
p3515
(dp3516
g78
S'n002'
p3517
sg80
S'n004'
p3518
sg81
(lp3519
S'n002'
p3520
aS'n002'
p3521
asg83
I0
sg84
S'defender.advert'
p3522
sg86
S'2013-09-24 18:09:19.968'
p3523
sg88
I40
sbasba(iHistoryObjects
State
p3524
(dp3525
g5
(lp3526
sg7
(lp3527
(iHistoryObjects
Message
p3528
(dp3529
g78
S'n005'
p3530
sg80
S'n002'
p3531
sg81
(lp3532
S'n005'
p3533
aS'n005'
p3534
asg83
I1
sg84
S'defender.advert'
p3535
sg86
S'2013-09-24 18:09:20.031'
p3536
sg88
I35
sbasg9
g10
((lp3537
(lp3538
S'defender.best_cost'
p3539
a(lp3540
(lp3541
S'n005'
p3542
ag245
aaaa(lp3543
S'defender.best_local_pref'
p3544
a(lp3545
(lp3546
S'n005'
p3547
aS'10'
p3548
aaaa(lp3549
S'defender.best_next_hop'
p3550
a(lp3551
(lp3552
S'n005'
p3553
aS'n005'
p3554
aaaa(lp3555
S'defender.policy'
p3556
a(lp3557
(lp3558
S'n001n005'
p3559
aS'20'
p3560
aa(lp3561
S'n005'
p3562
aS'10'
p3563
aaaa(lp3564
S'defender.rib_in'
p3565
a(lp3566
(lp3567
S'n005'
p3568
aS'n005'
p3569
aS'n005'
p3570
aaaa(lp3571
S'defender.rib_in_changed'
p3572
a(lp3573
(lp3574
S'n005'
p3575
aS'n005'
p3576
aaaa(lp3577
S'defender.rib_selected'
p3578
a(lp3579
(lp3580
S'n005'
p3581
aS'n005'
p3582
aS'n005'
p3583
aaaa(lp3584
S'neighbour'
p3585
a(lp3586
(lp3587
S'n001'
p3588
aa(lp3589
S'n004'
p3590
aa(lp3591
S'n005'
p3592
aaaa(lp3593
g3409
a(lp3594
aa(lp3595
g3412
a(lp3596
aa(lp3597
g3476
a(lp3598
aa(lp3599
g3415
a(lp3600
aa(lp3601
g3439
a(lp3602
aatp3603
Rp3604
sg68
g3383
sg69
I2
sg70
(lp3605
(iHistoryObjects
Message
p3606
(dp3607
g78
S'n002'
p3608
sg80
S'n001'
p3609
sg81
(lp3610
S'n005'
p3611
aS'n002n005'
p3612
asg83
I0
sg84
S'defender.advert'
p3613
sg86
S'2013-09-24 18:09:22.254'
p3614
sg88
I41
sba(iHistoryObjects
Message
p3615
(dp3616
g78
S'n002'
p3617
sg80
S'n004'
p3618
sg81
(lp3619
S'n005'
p3620
aS'n002n005'
p3621
asg83
I0
sg84
S'defender.advert'
p3622
sg86
S'2013-09-24 18:09:22.254'
p3623
sg88
I42
sba(iHistoryObjects
Message
p3624
(dp3625
g78
S'n002'
p3626
sg80
S'n005'
p3627
sg81
(lp3628
S'n005'
p3629
asg83
I0
sg84
S'defender.withdraw'
p3630
sg86
S'2013-09-24 18:09:22.316'
p3631
sg88
I43
sbasba(iHistoryObjects
State
p3632
(dp3633
g5
(lp3634
sg7
(lp3635
(iHistoryObjects
Message
p3636
(dp3637
g78
S'n001'
p3638
sg80
S'n002'
p3639
sg81
(lp3640
S'n001'
p3641
aS'n001'
p3642
asg83
I1
sg84
S'defender.advert'
p3643
sg86
S'2013-09-24 18:09:20.029'
p3644
sg88
I101
sbasg9
g10
((lp3645
(lp3646
S'defender.best_cost'
p3647
a(lp3648
(lp3649
S'n005'
p3650
ag245
aaaa(lp3651
S'defender.best_local_pref'
p3652
a(lp3653
(lp3654
S'n005'
p3655
aS'10'
p3656
aaaa(lp3657
S'defender.best_next_hop'
p3658
a(lp3659
(lp3660
S'n005'
p3661
aS'n005'
p3662
aaaa(lp3663
S'defender.policy'
p3664
a(lp3665
(lp3666
S'n001n005'
p3667
aS'20'
p3668
aa(lp3669
S'n005'
p3670
aS'10'
p3671
aaaa(lp3672
S'defender.rib_in'
p3673
a(lp3674
(lp3675
S'n005'
p3676
aS'n005'
p3677
aS'n005'
p3678
aaaa(lp3679
S'defender.rib_in_changed'
p3680
a(lp3681
(lp3682
S'n001'
p3683
aS'n001'
p3684
aaaa(lp3685
S'defender.rib_selected'
p3686
a(lp3687
(lp3688
S'n005'
p3689
aS'n005'
p3690
aS'n005'
p3691
aaaa(lp3692
S'neighbour'
p3693
a(lp3694
(lp3695
S'n001'
p3696
aa(lp3697
S'n004'
p3698
aa(lp3699
S'n005'
p3700
aaaa(lp3701
g3409
a(lp3702
aa(lp3703
g3412
a(lp3704
aa(lp3705
g3476
a(lp3706
aa(lp3707
g3415
a(lp3708
aa(lp3709
g3439
a(lp3710
aatp3711
Rp3712
sg68
g3383
sg69
I3
sg70
(lp3713
sba(iHistoryObjects
State
p3714
(dp3715
g5
(lp3716
sg7
(lp3717
(iHistoryObjects
Message
p3718
(dp3719
g78
S'n004'
p3720
sg80
S'n002'
p3721
sg81
(lp3722
S'n004'
p3723
aS'n004'
p3724
asg83
I1
sg84
S'defender.advert'
p3725
sg86
S'2013-09-24 18:09:20.254'
p3726
sg88
I0
sbasg9
g10
((lp3727
(lp3728
S'defender.best_cost'
p3729
a(lp3730
(lp3731
S'n005'
p3732
ag245
aaaa(lp3733
S'defender.best_local_pref'
p3734
a(lp3735
(lp3736
S'n005'
p3737
aS'10'
p3738
aaaa(lp3739
S'defender.best_next_hop'
p3740
a(lp3741
(lp3742
S'n005'
p3743
aS'n005'
p3744
aaaa(lp3745
S'defender.policy'
p3746
a(lp3747
(lp3748
S'n001n005'
p3749
aS'20'
p3750
aa(lp3751
S'n005'
p3752
aS'10'
p3753
aaaa(lp3754
S'defender.rib_in'
p3755
a(lp3756
(lp3757
S'n005'
p3758
aS'n005'
p3759
aS'n005'
p3760
aaaa(lp3761
S'defender.rib_in_changed'
p3762
a(lp3763
(lp3764
S'n004'
p3765
aS'n004'
p3766
aaaa(lp3767
S'defender.rib_selected'
p3768
a(lp3769
(lp3770
S'n005'
p3771
aS'n005'
p3772
aS'n005'
p3773
aaaa(lp3774
S'neighbour'
p3775
a(lp3776
(lp3777
S'n001'
p3778
aa(lp3779
S'n004'
p3780
aa(lp3781
S'n005'
p3782
aaaa(lp3783
g3409
a(lp3784
aa(lp3785
g3412
a(lp3786
aa(lp3787
g3476
a(lp3788
aa(lp3789
g3415
a(lp3790
aa(lp3791
g3439
a(lp3792
aatp3793
Rp3794
sg68
g3383
sg69
I4
sg70
(lp3795
sba(iHistoryObjects
State
p3796
(dp3797
g5
(lp3798
sg7
(lp3799
(iHistoryObjects
Message
p3800
(dp3801
g78
S'n001'
p3802
sg80
S'n002'
p3803
sg81
(lp3804
S'n005'
p3805
aS'n001n005'
p3806
asg83
I1
sg84
S'defender.advert'
p3807
sg86
S'2013-09-24 18:09:24.087'
p3808
sg88
I104
sbasg9
g10
((lp3809
(lp3810
S'defender.best_cost'
p3811
a(lp3812
(lp3813
S'n005'
p3814
ag433
aaaa(lp3815
S'defender.best_local_pref'
p3816
a(lp3817
(lp3818
S'n005'
p3819
aS'20'
p3820
aaaa(lp3821
S'defender.best_next_hop'
p3822
a(lp3823
(lp3824
S'n005'
p3825
aS'n001'
p3826
aaaa(lp3827
S'defender.policy'
p3828
a(lp3829
(lp3830
S'n001n005'
p3831
aS'20'
p3832
aa(lp3833
S'n005'
p3834
aS'10'
p3835
aaaa(lp3836
S'defender.rib_in'
p3837
a(lp3838
(lp3839
S'n005'
p3840
aS'n005'
p3841
aS'n005'
p3842
aa(lp3843
S'n005'
p3844
aS'n001'
p3845
aS'n001n005'
p3846
aaaa(lp3847
S'defender.rib_in_changed'
p3848
a(lp3849
(lp3850
S'n005'
p3851
aS'n001'
p3852
aaaa(lp3853
S'defender.rib_selected'
p3854
a(lp3855
(lp3856
S'n005'
p3857
aS'n001'
p3858
aS'n001n005'
p3859
aaaa(lp3860
S'neighbour'
p3861
a(lp3862
(lp3863
S'n001'
p3864
aa(lp3865
S'n004'
p3866
aa(lp3867
S'n005'
p3868
aaaa(lp3869
g3409
a(lp3870
aa(lp3871
g3412
a(lp3872
aa(lp3873
g3476
a(lp3874
aa(lp3875
g3415
a(lp3876
aa(lp3877
g3439
a(lp3878
aatp3879
Rp3880
sg68
g3383
sg69
I5
sg70
(lp3881
(iHistoryObjects
Message
p3882
(dp3883
g78
S'n002'
p3884
sg80
S'n004'
p3885
sg81
(lp3886
S'n005'
p3887
aS'n002n001n005'
p3888
asg83
I0
sg84
S'defender.advert'
p3889
sg86
S'2013-09-24 18:09:27.902'
p3890
sg88
I44
sba(iHistoryObjects
Message
p3891
(dp3892
g78
S'n002'
p3893
sg80
S'n001'
p3894
sg81
(lp3895
S'n005'
p3896
asg83
I0
sg84
S'defender.withdraw'
p3897
sg86
S'2013-09-24 18:09:27.921'
p3898
sg88
I45
sba(iHistoryObjects
Message
p3899
(dp3900
g78
S'n002'
p3901
sg80
S'n005'
p3902
sg81
(lp3903
S'n005'
p3904
asg83
I0
sg84
S'defender.withdraw'
p3905
sg86
S'2013-09-24 18:09:27.921'
p3906
sg88
I46
sbasba(iHistoryObjects
State
p3907
(dp3908
g5
(lp3909
sg7
(lp3910
(iHistoryObjects
Message
p3911
(dp3912
g78
S'n004'
p3913
sg80
S'n002'
p3914
sg81
(lp3915
S'n005'
p3916
aS'n004n005'
p3917
asg83
I1
sg84
S'defender.advert'
p3918
sg86
S'2013-09-24 18:09:24.28'
p3919
sg88
I3
sbasg9
g10
((lp3920
(lp3921
S'defender.best_cost'
p3922
a(lp3923
(lp3924
S'n005'
p3925
ag433
aaaa(lp3926
S'defender.best_local_pref'
p3927
a(lp3928
(lp3929
S'n005'
p3930
aS'20'
p3931
aaaa(lp3932
S'defender.best_next_hop'
p3933
a(lp3934
(lp3935
S'n005'
p3936
aS'n001'
p3937
aaaa(lp3938
S'defender.policy'
p3939
a(lp3940
(lp3941
S'n001n005'
p3942
aS'20'
p3943
aa(lp3944
S'n005'
p3945
aS'10'
p3946
aaaa(lp3947
S'defender.rib_in'
p3948
a(lp3949
(lp3950
S'n005'
p3951
aS'n001'
p3952
aS'n001n005'
p3953
aa(lp3954
S'n005'
p3955
aS'n005'
p3956
aS'n005'
p3957
aaaa(lp3958
S'defender.rib_in_changed'
p3959
a(lp3960
(lp3961
S'n005'
p3962
aS'n004'
p3963
aaaa(lp3964
S'defender.rib_selected'
p3965
a(lp3966
(lp3967
S'n005'
p3968
aS'n001'
p3969
aS'n001n005'
p3970
aaaa(lp3971
S'neighbour'
p3972
a(lp3973
(lp3974
S'n001'
p3975
aa(lp3976
S'n004'
p3977
aa(lp3978
S'n005'
p3979
aaaa(lp3980
g3409
a(lp3981
aa(lp3982
g3412
a(lp3983
aa(lp3984
g3476
a(lp3985
aa(lp3986
g3415
a(lp3987
aa(lp3988
g3439
a(lp3989
aatp3990
Rp3991
sg68
g3383
sg69
I6
sg70
(lp3992
sba(iHistoryObjects
State
p3993
(dp3994
g5
(lp3995
sg7
(lp3996
(iHistoryObjects
Message
p3997
(dp3998
g78
S'n004'
p3999
sg80
S'n002'
p4000
sg81
(lp4001
S'n005'
p4002
asg83
I1
sg84
S'defender.withdraw'
p4003
sg86
S'2013-09-24 18:09:34.233'
p4004
sg88
I6
sbasg9
g10
((lp4005
(lp4006
S'defender.best_cost'
p4007
a(lp4008
(lp4009
S'n005'
p4010
ag433
aaaa(lp4011
S'defender.best_local_pref'
p4012
a(lp4013
(lp4014
S'n005'
p4015
aS'20'
p4016
aaaa(lp4017
S'defender.best_next_hop'
p4018
a(lp4019
(lp4020
S'n005'
p4021
aS'n001'
p4022
aaaa(lp4023
S'defender.policy'
p4024
a(lp4025
(lp4026
S'n001n005'
p4027
aS'20'
p4028
aa(lp4029
S'n005'
p4030
aS'10'
p4031
aaaa(lp4032
S'defender.rib_in'
p4033
a(lp4034
(lp4035
S'n005'
p4036
aS'n001'
p4037
aS'n001n005'
p4038
aa(lp4039
S'n005'
p4040
aS'n005'
p4041
aS'n005'
p4042
aaaa(lp4043
S'defender.rib_in_changed'
p4044
a(lp4045
(lp4046
S'n005'
p4047
aS'n004'
p4048
aaaa(lp4049
S'defender.rib_selected'
p4050
a(lp4051
(lp4052
S'n005'
p4053
aS'n001'
p4054
aS'n001n005'
p4055
aaaa(lp4056
S'neighbour'
p4057
a(lp4058
(lp4059
S'n001'
p4060
aa(lp4061
S'n004'
p4062
aa(lp4063
S'n005'
p4064
aaaa(lp4065
g3409
a(lp4066
aa(lp4067
g3412
a(lp4068
aa(lp4069
g3476
a(lp4070
aa(lp4071
g3415
a(lp4072
aa(lp4073
g3439
a(lp4074
aatp4075
Rp4076
sg68
g3383
sg69
I7
sg70
(lp4077
sba(iHistoryObjects
State
p4078
(dp4079
g5
(lp4080
sg7
(lp4081
(iHistoryObjects
Message
p4082
(dp4083
g78
S'n004'
p4084
sg80
S'n002'
p4085
sg81
(lp4086
S'n005'
p4087
aS'n004n003n005'
p4088
asg83
I1
sg84
S'defender.advert'
p4089
sg86
S'2013-09-24 18:09:35.874'
p4090
sg88
I8
sbasg9
g10
((lp4091
(lp4092
S'defender.best_cost'
p4093
a(lp4094
(lp4095
S'n005'
p4096
ag433
aaaa(lp4097
S'defender.best_local_pref'
p4098
a(lp4099
(lp4100
S'n005'
p4101
aS'20'
p4102
aaaa(lp4103
S'defender.best_next_hop'
p4104
a(lp4105
(lp4106
S'n005'
p4107
aS'n001'
p4108
aaaa(lp4109
S'defender.policy'
p4110
a(lp4111
(lp4112
S'n001n005'
p4113
aS'20'
p4114
aa(lp4115
S'n005'
p4116
aS'10'
p4117
aaaa(lp4118
S'defender.rib_in'
p4119
a(lp4120
(lp4121
S'n005'
p4122
aS'n001'
p4123
aS'n001n005'
p4124
aa(lp4125
S'n005'
p4126
aS'n005'
p4127
aS'n005'
p4128
aaaa(lp4129
S'defender.rib_in_changed'
p4130
a(lp4131
(lp4132
S'n005'
p4133
aS'n004'
p4134
aaaa(lp4135
S'defender.rib_selected'
p4136
a(lp4137
(lp4138
S'n005'
p4139
aS'n001'
p4140
aS'n001n005'
p4141
aaaa(lp4142
S'neighbour'
p4143
a(lp4144
(lp4145
S'n001'
p4146
aa(lp4147
S'n004'
p4148
aa(lp4149
S'n005'
p4150
aaaa(lp4151
g3409
a(lp4152
aa(lp4153
g3412
a(lp4154
aa(lp4155
g3476
a(lp4156
aa(lp4157
g3415
a(lp4158
aa(lp4159
g3439
a(lp4160
aatp4161
Rp4162
sg68
g3383
sg69
I8
sg70
(lp4163
sba(iHistoryObjects
State
p4164
(dp4165
g5
(lp4166
sg7
(lp4167
(iHistoryObjects
Message
p4168
(dp4169
g78
S'n004'
p4170
sg80
S'n002'
p4171
sg81
(lp4172
S'n005'
p4173
asg83
I1
sg84
S'defender.withdraw'
p4174
sg86
S'2013-09-24 18:09:37.473'
p4175
sg88
I11
sbasg9
g10
((lp4176
(lp4177
S'defender.best_cost'
p4178
a(lp4179
(lp4180
S'n005'
p4181
ag433
aaaa(lp4182
S'defender.best_local_pref'
p4183
a(lp4184
(lp4185
S'n005'
p4186
aS'20'
p4187
aaaa(lp4188
S'defender.best_next_hop'
p4189
a(lp4190
(lp4191
S'n005'
p4192
aS'n001'
p4193
aaaa(lp4194
S'defender.policy'
p4195
a(lp4196
(lp4197
S'n001n005'
p4198
aS'20'
p4199
aa(lp4200
S'n005'
p4201
aS'10'
p4202
aaaa(lp4203
S'defender.rib_in'
p4204
a(lp4205
(lp4206
S'n005'
p4207
aS'n001'
p4208
aS'n001n005'
p4209
aa(lp4210
S'n005'
p4211
aS'n005'
p4212
aS'n005'
p4213
aaaa(lp4214
S'defender.rib_in_changed'
p4215
a(lp4216
(lp4217
S'n005'
p4218
aS'n004'
p4219
aaaa(lp4220
S'defender.rib_selected'
p4221
a(lp4222
(lp4223
S'n005'
p4224
aS'n001'
p4225
aS'n001n005'
p4226
aaaa(lp4227
S'neighbour'
p4228
a(lp4229
(lp4230
S'n001'
p4231
aa(lp4232
S'n004'
p4233
aa(lp4234
S'n005'
p4235
aaaa(lp4236
g3409
a(lp4237
aa(lp4238
g3412
a(lp4239
aa(lp4240
g3476
a(lp4241
aa(lp4242
g3415
a(lp4243
aa(lp4244
g3439
a(lp4245
aatp4246
Rp4247
sg68
g3383
sg69
I9
sg70
(lp4248
sba(iHistoryObjects
State
p4249
(dp4250
g5
(lp4251
sg7
(lp4252
(iHistoryObjects
Message
p4253
(dp4254
g78
S'n001'
p4255
sg80
S'n002'
p4256
sg81
(lp4257
S'n005'
p4258
asg83
I1
sg84
S'defender.withdraw'
p4259
sg86
S'2013-09-24 18:09:39.773'
p4260
sg88
I107
sbasg9
g10
((lp4261
(lp4262
S'defender.best_cost'
p4263
a(lp4264
(lp4265
S'n005'
p4266
ag245
aaaa(lp4267
S'defender.best_local_pref'
p4268
a(lp4269
(lp4270
S'n005'
p4271
aS'10'
p4272
aaaa(lp4273
S'defender.best_next_hop'
p4274
a(lp4275
(lp4276
S'n005'
p4277
aS'n005'
p4278
aaaa(lp4279
S'defender.policy'
p4280
a(lp4281
(lp4282
S'n001n005'
p4283
aS'20'
p4284
aa(lp4285
S'n005'
p4286
aS'10'
p4287
aaaa(lp4288
S'defender.rib_in'
p4289
a(lp4290
(lp4291
S'n005'
p4292
aS'n005'
p4293
aS'n005'
p4294
aaaa(lp4295
S'defender.rib_in_changed'
p4296
a(lp4297
(lp4298
S'n005'
p4299
aS'n001'
p4300
aaaa(lp4301
S'defender.rib_selected'
p4302
a(lp4303
(lp4304
S'n005'
p4305
aS'n005'
p4306
aS'n005'
p4307
aaaa(lp4308
S'neighbour'
p4309
a(lp4310
(lp4311
S'n001'
p4312
aa(lp4313
S'n004'
p4314
aa(lp4315
S'n005'
p4316
aaaa(lp4317
g3409
a(lp4318
aa(lp4319
g3412
a(lp4320
aa(lp4321
g3476
a(lp4322
aa(lp4323
g3415
a(lp4324
aa(lp4325
g3439
a(lp4326
aatp4327
Rp4328
sg68
g3383
sg69
I11
sg70
(lp4329
(iHistoryObjects
Message
p4330
(dp4331
g78
S'n002'
p4332
sg80
S'n001'
p4333
sg81
(lp4334
S'n005'
p4335
aS'n002n005'
p4336
asg83
I0
sg84
S'defender.advert'
p4337
sg86
S'2013-09-24 18:09:42.561'
p4338
sg88
I47
sba(iHistoryObjects
Message
p4339
(dp4340
g78
S'n002'
p4341
sg80
S'n004'
p4342
sg81
(lp4343
S'n005'
p4344
aS'n002n005'
p4345
asg83
I0
sg84
S'defender.advert'
p4346
sg86
S'2013-09-24 18:09:42.561'
p4347
sg88
I48
sba(iHistoryObjects
Message
p4348
(dp4349
g78
S'n002'
p4350
sg80
S'n005'
p4351
sg81
(lp4352
S'n005'
p4353
asg83
I0
sg84
S'defender.withdraw'
p4354
sg86
S'2013-09-24 18:09:42.575'
p4355
sg88
I49
sbasba(iHistoryObjects
State
p4356
(dp4357
g5
(lp4358
sg7
(lp4359
(iHistoryObjects
Message
p4360
(dp4361
g78
S'n004'
p4362
sg80
S'n002'
p4363
sg81
(lp4364
S'n005'
p4365
aS'n004n003n005'
p4366
asg83
I1
sg84
S'defender.advert'
p4367
sg86
S'2013-09-24 18:09:43.325'
p4368
sg88
I12
sbasg9
g10
((lp4369
(lp4370
S'defender.best_cost'
p4371
a(lp4372
(lp4373
S'n005'
p4374
ag245
aaaa(lp4375
S'defender.best_local_pref'
p4376
a(lp4377
(lp4378
S'n005'
p4379
aS'10'
p4380
aaaa(lp4381
S'defender.best_next_hop'
p4382
a(lp4383
(lp4384
S'n005'
p4385
aS'n005'
p4386
aaaa(lp4387
S'defender.policy'
p4388
a(lp4389
(lp4390
S'n001n005'
p4391
aS'20'
p4392
aa(lp4393
S'n005'
p4394
aS'10'
p4395
aaaa(lp4396
S'defender.rib_in'
p4397
a(lp4398
(lp4399
S'n005'
p4400
aS'n005'
p4401
aS'n005'
p4402
aaaa(lp4403
S'defender.rib_in_changed'
p4404
a(lp4405
(lp4406
S'n005'
p4407
aS'n004'
p4408
aaaa(lp4409
S'defender.rib_selected'
p4410
a(lp4411
(lp4412
S'n005'
p4413
aS'n005'
p4414
aS'n005'
p4415
aaaa(lp4416
S'neighbour'
p4417
a(lp4418
(lp4419
S'n001'
p4420
aa(lp4421
S'n004'
p4422
aa(lp4423
S'n005'
p4424
aaaa(lp4425
g3409
a(lp4426
aa(lp4427
g3412
a(lp4428
aa(lp4429
g3476
a(lp4430
aa(lp4431
g3415
a(lp4432
aa(lp4433
g3439
a(lp4434
aatp4435
Rp4436
sg68
g3383
sg69
I12
sg70
(lp4437
sba(iHistoryObjects
State
p4438
(dp4439
g5
(lp4440
sg7
(lp4441
(iHistoryObjects
Message
p4442
(dp4443
g78
S'n001'
p4444
sg80
S'n002'
p4445
sg81
(lp4446
S'n005'
p4447
aS'n001n005'
p4448
asg83
I1
sg84
S'defender.advert'
p4449
sg86
S'2013-09-24 18:09:45.906'
p4450
sg88
I110
sbasg9
g10
((lp4451
(lp4452
S'defender.best_cost'
p4453
a(lp4454
(lp4455
S'n005'
p4456
ag433
aaaa(lp4457
S'defender.best_local_pref'
p4458
a(lp4459
(lp4460
S'n005'
p4461
aS'20'
p4462
aaaa(lp4463
S'defender.best_next_hop'
p4464
a(lp4465
(lp4466
S'n005'
p4467
aS'n001'
p4468
aaaa(lp4469
S'defender.policy'
p4470
a(lp4471
(lp4472
S'n001n005'
p4473
aS'20'
p4474
aa(lp4475
S'n005'
p4476
aS'10'
p4477
aaaa(lp4478
S'defender.rib_in'
p4479
a(lp4480
(lp4481
S'n005'
p4482
aS'n005'
p4483
aS'n005'
p4484
aa(lp4485
S'n005'
p4486
aS'n001'
p4487
aS'n001n005'
p4488
aaaa(lp4489
S'defender.rib_in_changed'
p4490
a(lp4491
(lp4492
S'n005'
p4493
aS'n001'
p4494
aaaa(lp4495
S'defender.rib_selected'
p4496
a(lp4497
(lp4498
S'n005'
p4499
aS'n001'
p4500
aS'n001n005'
p4501
aaaa(lp4502
S'neighbour'
p4503
a(lp4504
(lp4505
S'n001'
p4506
aa(lp4507
S'n004'
p4508
aa(lp4509
S'n005'
p4510
aaaa(lp4511
g3409
a(lp4512
aa(lp4513
g3412
a(lp4514
aa(lp4515
g3476
a(lp4516
aa(lp4517
g3415
a(lp4518
aa(lp4519
g3439
a(lp4520
aatp4521
Rp4522
sg68
g3383
sg69
I14
sg70
(lp4523
(iHistoryObjects
Message
p4524
(dp4525
g78
S'n002'
p4526
sg80
S'n004'
p4527
sg81
(lp4528
S'n005'
p4529
aS'n002n001n005'
p4530
asg83
I0
sg84
S'defender.advert'
p4531
sg86
S'2013-09-24 18:09:47.064'
p4532
sg88
I50
sba(iHistoryObjects
Message
p4533
(dp4534
g78
S'n002'
p4535
sg80
S'n001'
p4536
sg81
(lp4537
S'n005'
p4538
asg83
I0
sg84
S'defender.withdraw'
p4539
sg86
S'2013-09-24 18:09:47.074'
p4540
sg88
I51
sba(iHistoryObjects
Message
p4541
(dp4542
g78
S'n002'
p4543
sg80
S'n005'
p4544
sg81
(lp4545
S'n005'
p4546
asg83
I0
sg84
S'defender.withdraw'
p4547
sg86
S'2013-09-24 18:09:47.074'
p4548
sg88
I52
sbasba(iHistoryObjects
State
p4549
(dp4550
g5
(lp4551
sg7
(lp4552
(iHistoryObjects
Message
p4553
(dp4554
g78
S'n004'
p4555
sg80
S'n002'
p4556
sg81
(lp4557
S'n005'
p4558
asg83
I1
sg84
S'defender.withdraw'
p4559
sg86
S'2013-09-24 18:09:47.754'
p4560
sg88
I14
sbasg9
g10
((lp4561
(lp4562
S'defender.best_cost'
p4563
a(lp4564
(lp4565
S'n005'
p4566
ag433
aaaa(lp4567
S'defender.best_local_pref'
p4568
a(lp4569
(lp4570
S'n005'
p4571
aS'20'
p4572
aaaa(lp4573
S'defender.best_next_hop'
p4574
a(lp4575
(lp4576
S'n005'
p4577
aS'n001'
p4578
aaaa(lp4579
S'defender.policy'
p4580
a(lp4581
(lp4582
S'n001n005'
p4583
aS'20'
p4584
aa(lp4585
S'n005'
p4586
aS'10'
p4587
aaaa(lp4588
S'defender.rib_in'
p4589
a(lp4590
(lp4591
S'n005'
p4592
aS'n001'
p4593
aS'n001n005'
p4594
aa(lp4595
S'n005'
p4596
aS'n005'
p4597
aS'n005'
p4598
aaaa(lp4599
S'defender.rib_in_changed'
p4600
a(lp4601
(lp4602
S'n005'
p4603
aS'n004'
p4604
aaaa(lp4605
S'defender.rib_selected'
p4606
a(lp4607
(lp4608
S'n005'
p4609
aS'n001'
p4610
aS'n001n005'
p4611
aaaa(lp4612
S'neighbour'
p4613
a(lp4614
(lp4615
S'n001'
p4616
aa(lp4617
S'n004'
p4618
aa(lp4619
S'n005'
p4620
aaaa(lp4621
g3409
a(lp4622
aa(lp4623
g3412
a(lp4624
aa(lp4625
g3476
a(lp4626
aa(lp4627
g3415
a(lp4628
aa(lp4629
g3439
a(lp4630
aatp4631
Rp4632
sg68
g3383
sg69
I15
sg70
(lp4633
sba(iHistoryObjects
State
p4634
(dp4635
g5
(lp4636
sg7
(lp4637
(iHistoryObjects
Message
p4638
(dp4639
g78
S'n004'
p4640
sg80
S'n002'
p4641
sg81
(lp4642
S'n005'
p4643
asg83
I1
sg84
S'defender.withdraw'
p4644
sg86
S'2013-09-24 18:09:50.755'
p4645
sg88
I17
sbasg9
g10
((lp4646
(lp4647
S'defender.best_cost'
p4648
a(lp4649
(lp4650
S'n005'
p4651
ag433
aaaa(lp4652
S'defender.best_local_pref'
p4653
a(lp4654
(lp4655
S'n005'
p4656
aS'20'
p4657
aaaa(lp4658
S'defender.best_next_hop'
p4659
a(lp4660
(lp4661
S'n005'
p4662
aS'n001'
p4663
aaaa(lp4664
S'defender.policy'
p4665
a(lp4666
(lp4667
S'n001n005'
p4668
aS'20'
p4669
aa(lp4670
S'n005'
p4671
aS'10'
p4672
aaaa(lp4673
S'defender.rib_in'
p4674
a(lp4675
(lp4676
S'n005'
p4677
aS'n001'
p4678
aS'n001n005'
p4679
aa(lp4680
S'n005'
p4681
aS'n005'
p4682
aS'n005'
p4683
aaaa(lp4684
S'defender.rib_in_changed'
p4685
a(lp4686
(lp4687
S'n005'
p4688
aS'n004'
p4689
aaaa(lp4690
S'defender.rib_selected'
p4691
a(lp4692
(lp4693
S'n005'
p4694
aS'n001'
p4695
aS'n001n005'
p4696
aaaa(lp4697
S'neighbour'
p4698
a(lp4699
(lp4700
S'n001'
p4701
aa(lp4702
S'n004'
p4703
aa(lp4704
S'n005'
p4705
aaaa(lp4706
g3409
a(lp4707
aa(lp4708
g3412
a(lp4709
aa(lp4710
g3476
a(lp4711
aa(lp4712
g3415
a(lp4713
aa(lp4714
g3439
a(lp4715
aatp4716
Rp4717
sg68
g3383
sg69
I16
sg70
(lp4718
sba(iHistoryObjects
State
p4719
(dp4720
g5
(lp4721
sg7
(lp4722
(iHistoryObjects
Message
p4723
(dp4724
g78
S'n001'
p4725
sg80
S'n002'
p4726
sg81
(lp4727
S'n005'
p4728
asg83
I1
sg84
S'defender.withdraw'
p4729
sg86
S'2013-09-24 18:09:52.053'
p4730
sg88
I113
sbasg9
g10
((lp4731
(lp4732
S'defender.best_cost'
p4733
a(lp4734
(lp4735
S'n005'
p4736
ag245
aaaa(lp4737
S'defender.best_local_pref'
p4738
a(lp4739
(lp4740
S'n005'
p4741
aS'10'
p4742
aaaa(lp4743
S'defender.best_next_hop'
p4744
a(lp4745
(lp4746
S'n005'
p4747
aS'n005'
p4748
aaaa(lp4749
S'defender.policy'
p4750
a(lp4751
(lp4752
S'n001n005'
p4753
aS'20'
p4754
aa(lp4755
S'n005'
p4756
aS'10'
p4757
aaaa(lp4758
S'defender.rib_in'
p4759
a(lp4760
(lp4761
S'n005'
p4762
aS'n005'
p4763
aS'n005'
p4764
aaaa(lp4765
S'defender.rib_in_changed'
p4766
a(lp4767
(lp4768
S'n005'
p4769
aS'n001'
p4770
aaaa(lp4771
S'defender.rib_selected'
p4772
a(lp4773
(lp4774
S'n005'
p4775
aS'n005'
p4776
aS'n005'
p4777
aaaa(lp4778
S'neighbour'
p4779
a(lp4780
(lp4781
S'n001'
p4782
aa(lp4783
S'n004'
p4784
aa(lp4785
S'n005'
p4786
aaaa(lp4787
g3409
a(lp4788
aa(lp4789
g3412
a(lp4790
aa(lp4791
g3476
a(lp4792
aa(lp4793
g3415
a(lp4794
aa(lp4795
g3439
a(lp4796
aatp4797
Rp4798
sg68
g3383
sg69
I18
sg70
(lp4799
(iHistoryObjects
Message
p4800
(dp4801
g78
S'n002'
p4802
sg80
S'n001'
p4803
sg81
(lp4804
S'n005'
p4805
aS'n002n005'
p4806
asg83
I0
sg84
S'defender.advert'
p4807
sg86
S'2013-09-24 18:09:54.37'
p4808
sg88
I53
sba(iHistoryObjects
Message
p4809
(dp4810
g78
S'n002'
p4811
sg80
S'n004'
p4812
sg81
(lp4813
S'n005'
p4814
aS'n002n005'
p4815
asg83
I0
sg84
S'defender.advert'
p4816
sg86
S'2013-09-24 18:09:54.37'
p4817
sg88
I54
sba(iHistoryObjects
Message
p4818
(dp4819
g78
S'n002'
p4820
sg80
S'n005'
p4821
sg81
(lp4822
S'n005'
p4823
asg83
I0
sg84
S'defender.withdraw'
p4824
sg86
S'2013-09-24 18:09:54.38'
p4825
sg88
I55
sbasba(iHistoryObjects
State
p4826
(dp4827
g5
(lp4828
sg7
(lp4829
(iHistoryObjects
Message
p4830
(dp4831
g78
S'n004'
p4832
sg80
S'n002'
p4833
sg81
(lp4834
S'n005'
p4835
aS'n004n003n005'
p4836
asg83
I1
sg84
S'defender.advert'
p4837
sg86
S'2013-09-24 18:09:56.468'
p4838
sg88
I18
sbasg9
g10
((lp4839
(lp4840
S'defender.best_cost'
p4841
a(lp4842
(lp4843
S'n005'
p4844
ag245
aaaa(lp4845
S'defender.best_local_pref'
p4846
a(lp4847
(lp4848
S'n005'
p4849
aS'10'
p4850
aaaa(lp4851
S'defender.best_next_hop'
p4852
a(lp4853
(lp4854
S'n005'
p4855
aS'n005'
p4856
aaaa(lp4857
S'defender.policy'
p4858
a(lp4859
(lp4860
S'n001n005'
p4861
aS'20'
p4862
aa(lp4863
S'n005'
p4864
aS'10'
p4865
aaaa(lp4866
S'defender.rib_in'
p4867
a(lp4868
(lp4869
S'n005'
p4870
aS'n005'
p4871
aS'n005'
p4872
aaaa(lp4873
S'defender.rib_in_changed'
p4874
a(lp4875
(lp4876
S'n005'
p4877
aS'n004'
p4878
aaaa(lp4879
S'defender.rib_selected'
p4880
a(lp4881
(lp4882
S'n005'
p4883
aS'n005'
p4884
aS'n005'
p4885
aaaa(lp4886
S'neighbour'
p4887
a(lp4888
(lp4889
S'n001'
p4890
aa(lp4891
S'n004'
p4892
aa(lp4893
S'n005'
p4894
aaaa(lp4895
g3409
a(lp4896
aa(lp4897
g3412
a(lp4898
aa(lp4899
g3476
a(lp4900
aa(lp4901
g3415
a(lp4902
aa(lp4903
g3439
a(lp4904
aatp4905
Rp4906
sg68
g3383
sg69
I19
sg70
(lp4907
sba(iHistoryObjects
State
p4908
(dp4909
g5
(lp4910
sg7
(lp4911
(iHistoryObjects
Message
p4912
(dp4913
g78
S'n001'
p4914
sg80
S'n002'
p4915
sg81
(lp4916
S'n005'
p4917
aS'n001n005'
p4918
asg83
I1
sg84
S'defender.advert'
p4919
sg86
S'2013-09-24 18:09:57.668'
p4920
sg88
I116
sbasg9
g10
((lp4921
(lp4922
S'defender.best_cost'
p4923
a(lp4924
(lp4925
S'n005'
p4926
ag433
aaaa(lp4927
S'defender.best_local_pref'
p4928
a(lp4929
(lp4930
S'n005'
p4931
aS'20'
p4932
aaaa(lp4933
S'defender.best_next_hop'
p4934
a(lp4935
(lp4936
S'n005'
p4937
aS'n001'
p4938
aaaa(lp4939
S'defender.policy'
p4940
a(lp4941
(lp4942
S'n001n005'
p4943
aS'20'
p4944
aa(lp4945
S'n005'
p4946
aS'10'
p4947
aaaa(lp4948
S'defender.rib_in'
p4949
a(lp4950
(lp4951
S'n005'
p4952
aS'n005'
p4953
aS'n005'
p4954
aa(lp4955
S'n005'
p4956
aS'n001'
p4957
aS'n001n005'
p4958
aaaa(lp4959
S'defender.rib_in_changed'
p4960
a(lp4961
(lp4962
S'n005'
p4963
aS'n001'
p4964
aaaa(lp4965
S'defender.rib_selected'
p4966
a(lp4967
(lp4968
S'n005'
p4969
aS'n001'
p4970
aS'n001n005'
p4971
aaaa(lp4972
S'neighbour'
p4973
a(lp4974
(lp4975
S'n001'
p4976
aa(lp4977
S'n004'
p4978
aa(lp4979
S'n005'
p4980
aaaa(lp4981
g3409
a(lp4982
aa(lp4983
g3412
a(lp4984
aa(lp4985
g3476
a(lp4986
aa(lp4987
g3415
a(lp4988
aa(lp4989
g3439
a(lp4990
aatp4991
Rp4992
sg68
g3383
sg69
I21
sg70
(lp4993
(iHistoryObjects
Message
p4994
(dp4995
g78
S'n002'
p4996
sg80
S'n004'
p4997
sg81
(lp4998
S'n005'
p4999
aS'n002n001n005'
p5000
asg83
I0
sg84
S'defender.advert'
p5001
sg86
S'2013-09-24 18:09:59.666'
p5002
sg88
I56
sba(iHistoryObjects
Message
p5003
(dp5004
g78
S'n002'
p5005
sg80
S'n001'
p5006
sg81
(lp5007
S'n005'
p5008
asg83
I0
sg84
S'defender.withdraw'
p5009
sg86
S'2013-09-24 18:09:59.676'
p5010
sg88
I57
sba(iHistoryObjects
Message
p5011
(dp5012
g78
S'n002'
p5013
sg80
S'n005'
p5014
sg81
(lp5015
S'n005'
p5016
asg83
I0
sg84
S'defender.withdraw'
p5017
sg86
S'2013-09-24 18:09:59.676'
p5018
sg88
I58
sbasba(iHistoryObjects
State
p5019
(dp5020
g5
(lp5021
sg7
(lp5022
(iHistoryObjects
Message
p5023
(dp5024
g78
S'n004'
p5025
sg80
S'n002'
p5026
sg81
(lp5027
S'n005'
p5028
asg83
I1
sg84
S'defender.withdraw'
p5029
sg86
S'2013-09-24 18:09:59.225'
p5030
sg88
I20
sbasg9
g10
((lp5031
(lp5032
S'defender.best_cost'
p5033
a(lp5034
(lp5035
S'n005'
p5036
ag433
aaaa(lp5037
S'defender.best_local_pref'
p5038
a(lp5039
(lp5040
S'n005'
p5041
aS'20'
p5042
aaaa(lp5043
S'defender.best_next_hop'
p5044
a(lp5045
(lp5046
S'n005'
p5047
aS'n001'
p5048
aaaa(lp5049
S'defender.policy'
p5050
a(lp5051
(lp5052
S'n001n005'
p5053
aS'20'
p5054
aa(lp5055
S'n005'
p5056
aS'10'
p5057
aaaa(lp5058
S'defender.rib_in'
p5059
a(lp5060
(lp5061
S'n005'
p5062
aS'n001'
p5063
aS'n001n005'
p5064
aa(lp5065
S'n005'
p5066
aS'n005'
p5067
aS'n005'
p5068
aaaa(lp5069
S'defender.rib_in_changed'
p5070
a(lp5071
(lp5072
S'n005'
p5073
aS'n004'
p5074
aaaa(lp5075
S'defender.rib_selected'
p5076
a(lp5077
(lp5078
S'n005'
p5079
aS'n001'
p5080
aS'n001n005'
p5081
aaaa(lp5082
S'neighbour'
p5083
a(lp5084
(lp5085
S'n001'
p5086
aa(lp5087
S'n004'
p5088
aa(lp5089
S'n005'
p5090
aaaa(lp5091
g3409
a(lp5092
aa(lp5093
g3412
a(lp5094
aa(lp5095
g3476
a(lp5096
aa(lp5097
g3415
a(lp5098
aa(lp5099
g3439
a(lp5100
aatp5101
Rp5102
sg68
g3383
sg69
I22
sg70
(lp5103
sba(iHistoryObjects
State
p5104
(dp5105
g5
(lp5106
sg7
(lp5107
(iHistoryObjects
Message
p5108
(dp5109
g78
S'n004'
p5110
sg80
S'n002'
p5111
sg81
(lp5112
S'n005'
p5113
asg83
I1
sg84
S'defender.withdraw'
p5114
sg86
S'2013-09-24 18:10:01.954'
p5115
sg88
I23
sbasg9
g10
((lp5116
(lp5117
S'defender.best_cost'
p5118
a(lp5119
(lp5120
S'n005'
p5121
ag433
aaaa(lp5122
S'defender.best_local_pref'
p5123
a(lp5124
(lp5125
S'n005'
p5126
aS'20'
p5127
aaaa(lp5128
S'defender.best_next_hop'
p5129
a(lp5130
(lp5131
S'n005'
p5132
aS'n001'
p5133
aaaa(lp5134
S'defender.policy'
p5135
a(lp5136
(lp5137
S'n001n005'
p5138
aS'20'
p5139
aa(lp5140
S'n005'
p5141
aS'10'
p5142
aaaa(lp5143
S'defender.rib_in'
p5144
a(lp5145
(lp5146
S'n005'
p5147
aS'n001'
p5148
aS'n001n005'
p5149
aa(lp5150
S'n005'
p5151
aS'n005'
p5152
aS'n005'
p5153
aaaa(lp5154
S'defender.rib_in_changed'
p5155
a(lp5156
(lp5157
S'n005'
p5158
aS'n004'
p5159
aaaa(lp5160
S'defender.rib_selected'
p5161
a(lp5162
(lp5163
S'n005'
p5164
aS'n001'
p5165
aS'n001n005'
p5166
aaaa(lp5167
S'neighbour'
p5168
a(lp5169
(lp5170
S'n001'
p5171
aa(lp5172
S'n004'
p5173
aa(lp5174
S'n005'
p5175
aaaa(lp5176
g3409
a(lp5177
aa(lp5178
g3412
a(lp5179
aa(lp5180
g3476
a(lp5181
aa(lp5182
g3415
a(lp5183
aa(lp5184
g3439
a(lp5185
aatp5186
Rp5187
sg68
g3383
sg69
I23
sg70
(lp5188
sba(iHistoryObjects
State
p5189
(dp5190
g5
(lp5191
sg7
(lp5192
(iHistoryObjects
Message
p5193
(dp5194
g78
S'n001'
p5195
sg80
S'n002'
p5196
sg81
(lp5197
S'n005'
p5198
asg83
I1
sg84
S'defender.withdraw'
p5199
sg86
S'2013-09-24 18:10:04.335'
p5200
sg88
I119
sbasg9
g10
((lp5201
(lp5202
S'defender.best_cost'
p5203
a(lp5204
(lp5205
S'n005'
p5206
ag245
aaaa(lp5207
S'defender.best_local_pref'
p5208
a(lp5209
(lp5210
S'n005'
p5211
aS'10'
p5212
aaaa(lp5213
S'defender.best_next_hop'
p5214
a(lp5215
(lp5216
S'n005'
p5217
aS'n005'
p5218
aaaa(lp5219
S'defender.policy'
p5220
a(lp5221
(lp5222
S'n001n005'
p5223
aS'20'
p5224
aa(lp5225
S'n005'
p5226
aS'10'
p5227
aaaa(lp5228
S'defender.rib_in'
p5229
a(lp5230
(lp5231
S'n005'
p5232
aS'n005'
p5233
aS'n005'
p5234
aaaa(lp5235
S'defender.rib_in_changed'
p5236
a(lp5237
(lp5238
S'n005'
p5239
aS'n001'
p5240
aaaa(lp5241
S'defender.rib_selected'
p5242
a(lp5243
(lp5244
S'n005'
p5245
aS'n005'
p5246
aS'n005'
p5247
aaaa(lp5248
S'neighbour'
p5249
a(lp5250
(lp5251
S'n001'
p5252
aa(lp5253
S'n004'
p5254
aa(lp5255
S'n005'
p5256
aaaa(lp5257
g3409
a(lp5258
aa(lp5259
g3412
a(lp5260
aa(lp5261
g3476
a(lp5262
aa(lp5263
g3415
a(lp5264
aa(lp5265
g3439
a(lp5266
aatp5267
Rp5268
sg68
g3383
sg69
I25
sg70
(lp5269
(iHistoryObjects
Message
p5270
(dp5271
g78
S'n002'
p5272
sg80
S'n001'
p5273
sg81
(lp5274
S'n005'
p5275
aS'n002n005'
p5276
asg83
I0
sg84
S'defender.advert'
p5277
sg86
S'2013-09-24 18:10:07.05'
p5278
sg88
I59
sba(iHistoryObjects
Message
p5279
(dp5280
g78
S'n002'
p5281
sg80
S'n004'
p5282
sg81
(lp5283
S'n005'
p5284
aS'n002n005'
p5285
asg83
I0
sg84
S'defender.advert'
p5286
sg86
S'2013-09-24 18:10:07.05'
p5287
sg88
I60
sba(iHistoryObjects
Message
p5288
(dp5289
g78
S'n002'
p5290
sg80
S'n005'
p5291
sg81
(lp5292
S'n005'
p5293
asg83
I1
sg84
S'defender.withdraw'
p5294
sg86
S'2013-09-24 18:10:07.059'
p5295
sg69
I25
sg88
I61
sbasba(iHistoryObjects
State
p5296
(dp5297
g5
(lp5298
sg7
(lp5299
(iHistoryObjects
Message
p5300
(dp5301
g78
S'n004'
p5302
sg80
S'n002'
p5303
sg81
(lp5304
S'n005'
p5305
aS'n004n003n005'
p5306
asg83
I1
sg84
S'defender.advert'
p5307
sg86
S'2013-09-24 18:10:07.436'
p5308
sg88
I24
sbasg9
g10
((lp5309
(lp5310
S'defender.best_cost'
p5311
a(lp5312
(lp5313
S'n005'
p5314
ag245
aaaa(lp5315
S'defender.best_local_pref'
p5316
a(lp5317
(lp5318
S'n005'
p5319
aS'10'
p5320
aaaa(lp5321
S'defender.best_next_hop'
p5322
a(lp5323
(lp5324
S'n005'
p5325
aS'n005'
p5326
aaaa(lp5327
S'defender.policy'
p5328
a(lp5329
(lp5330
S'n001n005'
p5331
aS'20'
p5332
aa(lp5333
S'n005'
p5334
aS'10'
p5335
aaaa(lp5336
S'defender.rib_in'
p5337
a(lp5338
(lp5339
S'n005'
p5340
aS'n005'
p5341
aS'n005'
p5342
aaaa(lp5343
S'defender.rib_in_changed'
p5344
a(lp5345
(lp5346
S'n005'
p5347
aS'n004'
p5348
aaaa(lp5349
S'defender.rib_selected'
p5350
a(lp5351
(lp5352
S'n005'
p5353
aS'n005'
p5354
aS'n005'
p5355
aaaa(lp5356
S'neighbour'
p5357
a(lp5358
(lp5359
S'n001'
p5360
aa(lp5361
S'n004'
p5362
aa(lp5363
S'n005'
p5364
aaaa(lp5365
g3409
a(lp5366
aa(lp5367
g3412
a(lp5368
aa(lp5369
g3476
a(lp5370
aa(lp5371
g3415
a(lp5372
aa(lp5373
g3439
a(lp5374
aatp5375
Rp5376
sg68
g3383
sg69
I26
sg70
(lp5377
sba(iHistoryObjects
State
p5378
(dp5379
g5
(lp5380
sg7
(lp5381
(iHistoryObjects
Message
p5382
(dp5383
g78
S'n001'
p5384
sg80
S'n002'
p5385
sg81
(lp5386
S'n005'
p5387
aS'n001n005'
p5388
asg83
I1
sg84
S'defender.advert'
p5389
sg86
S'2013-09-24 18:10:10.055'
p5390
sg88
I122
sbasg9
g10
((lp5391
(lp5392
S'defender.best_cost'
p5393
a(lp5394
(lp5395
S'n005'
p5396
ag433
aaaa(lp5397
S'defender.best_local_pref'
p5398
a(lp5399
(lp5400
S'n005'
p5401
aS'20'
p5402
aaaa(lp5403
S'defender.best_next_hop'
p5404
a(lp5405
(lp5406
S'n005'
p5407
aS'n001'
p5408
aaaa(lp5409
S'defender.policy'
p5410
a(lp5411
(lp5412
S'n001n005'
p5413
aS'20'
p5414
aa(lp5415
S'n005'
p5416
aS'10'
p5417
aaaa(lp5418
S'defender.rib_in'
p5419
a(lp5420
(lp5421
S'n005'
p5422
aS'n005'
p5423
aS'n005'
p5424
aa(lp5425
S'n005'
p5426
aS'n001'
p5427
aS'n001n005'
p5428
aaaa(lp5429
S'defender.rib_in_changed'
p5430
a(lp5431
(lp5432
S'n005'
p5433
aS'n001'
p5434
aaaa(lp5435
S'defender.rib_selected'
p5436
a(lp5437
(lp5438
S'n005'
p5439
aS'n001'
p5440
aS'n001n005'
p5441
aaaa(lp5442
S'neighbour'
p5443
a(lp5444
(lp5445
S'n001'
p5446
aa(lp5447
S'n004'
p5448
aa(lp5449
S'n005'
p5450
aaaa(lp5451
g3409
a(lp5452
aa(lp5453
g3412
a(lp5454
aa(lp5455
g3476
a(lp5456
aa(lp5457
g3415
a(lp5458
aa(lp5459
g3439
a(lp5460
aatp5461
Rp5462
sg68
g3383
sg69
I28
sg70
(lp5463
(iHistoryObjects
Message
p5464
(dp5465
g78
S'n002'
p5466
sg80
S'n004'
p5467
sg81
(lp5468
S'n005'
p5469
aS'n002n001n005'
p5470
asg83
I0
sg84
S'defender.advert'
p5471
sg86
S'2013-09-24 18:10:11.279'
p5472
sg88
I62
sba(iHistoryObjects
Message
p5473
(dp5474
g78
S'n002'
p5475
sg80
S'n001'
p5476
sg81
(lp5477
S'n005'
p5478
asg83
I0
sg84
S'defender.withdraw'
p5479
sg86
S'2013-09-24 18:10:11.288'
p5480
sg88
I63
sba(iHistoryObjects
Message
p5481
(dp5482
g78
S'n002'
p5483
sg80
S'n005'
p5484
sg81
(lp5485
S'n005'
p5486
asg83
I1
sg84
S'defender.withdraw'
p5487
sg86
S'2013-09-24 18:10:11.288'
p5488
sg69
I28
sg88
I64
sbasba(iHistoryObjects
State
p5489
(dp5490
g5
(lp5491
sg7
(lp5492
(iHistoryObjects
Message
p5493
(dp5494
g78
S'n004'
p5495
sg80
S'n002'
p5496
sg81
(lp5497
S'n005'
p5498
asg83
I1
sg84
S'defender.withdraw'
p5499
sg86
S'2013-09-24 18:10:10.191'
p5500
sg88
I26
sbasg9
g10
((lp5501
(lp5502
S'defender.best_cost'
p5503
a(lp5504
(lp5505
S'n005'
p5506
ag433
aaaa(lp5507
S'defender.best_local_pref'
p5508
a(lp5509
(lp5510
S'n005'
p5511
aS'20'
p5512
aaaa(lp5513
S'defender.best_next_hop'
p5514
a(lp5515
(lp5516
S'n005'
p5517
aS'n001'
p5518
aaaa(lp5519
S'defender.policy'
p5520
a(lp5521
(lp5522
S'n001n005'
p5523
aS'20'
p5524
aa(lp5525
S'n005'
p5526
aS'10'
p5527
aaaa(lp5528
S'defender.rib_in'
p5529
a(lp5530
(lp5531
S'n005'
p5532
aS'n001'
p5533
aS'n001n005'
p5534
aa(lp5535
S'n005'
p5536
aS'n005'
p5537
aS'n005'
p5538
aaaa(lp5539
S'defender.rib_in_changed'
p5540
a(lp5541
(lp5542
S'n005'
p5543
aS'n004'
p5544
aaaa(lp5545
S'defender.rib_selected'
p5546
a(lp5547
(lp5548
S'n005'
p5549
aS'n001'
p5550
aS'n001n005'
p5551
aaaa(lp5552
S'neighbour'
p5553
a(lp5554
(lp5555
S'n001'
p5556
aa(lp5557
S'n004'
p5558
aa(lp5559
S'n005'
p5560
aaaa(lp5561
g3409
a(lp5562
aa(lp5563
g3412
a(lp5564
aa(lp5565
g3476
a(lp5566
aa(lp5567
g3415
a(lp5568
aa(lp5569
g3439
a(lp5570
aatp5571
Rp5572
sg68
g3383
sg69
I29
sg70
(lp5573
sba(iHistoryObjects
State
p5574
(dp5575
g5
(lp5576
sg7
(lp5577
(iHistoryObjects
Message
p5578
(dp5579
g78
S'n004'
p5580
sg80
S'n002'
p5581
sg81
(lp5582
S'n005'
p5583
asg83
I1
sg84
S'defender.withdraw'
p5584
sg86
S'2013-09-24 18:10:12.95'
p5585
sg88
I29
sbasg9
g10
((lp5586
(lp5587
S'defender.best_cost'
p5588
a(lp5589
(lp5590
S'n005'
p5591
ag433
aaaa(lp5592
S'defender.best_local_pref'
p5593
a(lp5594
(lp5595
S'n005'
p5596
aS'20'
p5597
aaaa(lp5598
S'defender.best_next_hop'
p5599
a(lp5600
(lp5601
S'n005'
p5602
aS'n001'
p5603
aaaa(lp5604
S'defender.policy'
p5605
a(lp5606
(lp5607
S'n001n005'
p5608
aS'20'
p5609
aa(lp5610
S'n005'
p5611
aS'10'
p5612
aaaa(lp5613
S'defender.rib_in'
p5614
a(lp5615
(lp5616
S'n005'
p5617
aS'n001'
p5618
aS'n001n005'
p5619
aa(lp5620
S'n005'
p5621
aS'n005'
p5622
aS'n005'
p5623
aaaa(lp5624
S'defender.rib_in_changed'
p5625
a(lp5626
(lp5627
S'n005'
p5628
aS'n004'
p5629
aaaa(lp5630
S'defender.rib_selected'
p5631
a(lp5632
(lp5633
S'n005'
p5634
aS'n001'
p5635
aS'n001n005'
p5636
aaaa(lp5637
S'neighbour'
p5638
a(lp5639
(lp5640
S'n001'
p5641
aa(lp5642
S'n004'
p5643
aa(lp5644
S'n005'
p5645
aaaa(lp5646
g3409
a(lp5647
aa(lp5648
g3412
a(lp5649
aa(lp5650
g3476
a(lp5651
aa(lp5652
g3415
a(lp5653
aa(lp5654
g3439
a(lp5655
aatp5656
Rp5657
sg68
g3383
sg69
I30
sg70
(lp5658
sba(iHistoryObjects
State
p5659
(dp5660
g5
(lp5661
sg7
(lp5662
(iHistoryObjects
Message
p5663
(dp5664
g78
S'n001'
p5665
sg80
S'n002'
p5666
sg81
(lp5667
S'n005'
p5668
asg83
I1
sg84
S'defender.withdraw'
p5669
sg86
S'2013-09-24 18:10:15.723'
p5670
sg88
I125
sbasg9
g10
((lp5671
(lp5672
S'defender.best_cost'
p5673
a(lp5674
(lp5675
S'n005'
p5676
ag245
aaaa(lp5677
S'defender.best_local_pref'
p5678
a(lp5679
(lp5680
S'n005'
p5681
aS'10'
p5682
aaaa(lp5683
S'defender.best_next_hop'
p5684
a(lp5685
(lp5686
S'n005'
p5687
aS'n005'
p5688
aaaa(lp5689
S'defender.policy'
p5690
a(lp5691
(lp5692
S'n001n005'
p5693
aS'20'
p5694
aa(lp5695
S'n005'
p5696
aS'10'
p5697
aaaa(lp5698
S'defender.rib_in'
p5699
a(lp5700
(lp5701
S'n005'
p5702
aS'n005'
p5703
aS'n005'
p5704
aaaa(lp5705
S'defender.rib_in_changed'
p5706
a(lp5707
(lp5708
S'n005'
p5709
aS'n001'
p5710
aaaa(lp5711
S'defender.rib_selected'
p5712
a(lp5713
(lp5714
S'n005'
p5715
aS'n005'
p5716
aS'n005'
p5717
aaaa(lp5718
S'neighbour'
p5719
a(lp5720
(lp5721
S'n001'
p5722
aa(lp5723
S'n004'
p5724
aa(lp5725
S'n005'
p5726
aaaa(lp5727
g3409
a(lp5728
aa(lp5729
g3412
a(lp5730
aa(lp5731
g3476
a(lp5732
aa(lp5733
g3415
a(lp5734
aa(lp5735
g3439
a(lp5736
aatp5737
Rp5738
sg68
g3383
sg69
I32
sg70
(lp5739
(iHistoryObjects
Message
p5740
(dp5741
g78
S'n002'
p5742
sg80
S'n001'
p5743
sg81
(lp5744
S'n005'
p5745
aS'n002n005'
p5746
asg83
I0
sg84
S'defender.advert'
p5747
sg86
S'2013-09-24 18:10:18.259'
p5748
sg88
I65
sba(iHistoryObjects
Message
p5749
(dp5750
g78
S'n002'
p5751
sg80
S'n004'
p5752
sg81
(lp5753
S'n005'
p5754
aS'n002n005'
p5755
asg83
I1
sg84
S'defender.advert'
p5756
sg86
S'2013-09-24 18:10:18.259'
p5757
sg69
I32
sg88
I66
sba(iHistoryObjects
Message
p5758
(dp5759
g78
S'n002'
p5760
sg80
S'n005'
p5761
sg81
(lp5762
S'n005'
p5763
asg83
I1
sg84
S'defender.withdraw'
p5764
sg86
S'2013-09-24 18:10:18.268'
p5765
sg69
I32
sg88
I67
sbasba(iHistoryObjects
State
p5766
(dp5767
g5
(lp5768
sg7
(lp5769
(iHistoryObjects
Message
p5770
(dp5771
g78
S'n004'
p5772
sg80
S'n002'
p5773
sg81
(lp5774
S'n005'
p5775
aS'n004n003n005'
p5776
asg83
I1
sg84
S'defender.advert'
p5777
sg86
S'2013-09-24 18:10:18.624'
p5778
sg88
I30
sbasg9
g10
((lp5779
(lp5780
S'defender.best_cost'
p5781
a(lp5782
(lp5783
S'n005'
p5784
ag245
aaaa(lp5785
S'defender.best_local_pref'
p5786
a(lp5787
(lp5788
S'n005'
p5789
aS'10'
p5790
aaaa(lp5791
S'defender.best_next_hop'
p5792
a(lp5793
(lp5794
S'n005'
p5795
aS'n005'
p5796
aaaa(lp5797
S'defender.policy'
p5798
a(lp5799
(lp5800
S'n001n005'
p5801
aS'20'
p5802
aa(lp5803
S'n005'
p5804
aS'10'
p5805
aaaa(lp5806
S'defender.rib_in'
p5807
a(lp5808
(lp5809
S'n005'
p5810
aS'n005'
p5811
aS'n005'
p5812
aaaa(lp5813
S'defender.rib_in_changed'
p5814
a(lp5815
(lp5816
S'n005'
p5817
aS'n004'
p5818
aaaa(lp5819
S'defender.rib_selected'
p5820
a(lp5821
(lp5822
S'n005'
p5823
aS'n005'
p5824
aS'n005'
p5825
aaaa(lp5826
S'neighbour'
p5827
a(lp5828
(lp5829
S'n001'
p5830
aa(lp5831
S'n004'
p5832
aa(lp5833
S'n005'
p5834
aaaa(lp5835
g3409
a(lp5836
aa(lp5837
g3412
a(lp5838
aa(lp5839
g3476
a(lp5840
aa(lp5841
g3415
a(lp5842
aa(lp5843
g3439
a(lp5844
aatp5845
Rp5846
sg68
g3383
sg69
I33
sg70
(lp5847
sba(iHistoryObjects
State
p5848
(dp5849
g5
(lp5850
sg7
(lp5851
(iHistoryObjects
Message
p5852
(dp5853
g78
S'n001'
p5854
sg80
S'n002'
p5855
sg81
(lp5856
S'n005'
p5857
aS'n001n005'
p5858
asg83
I1
sg84
S'defender.advert'
p5859
sg86
S'2013-09-24 18:10:21.435'
p5860
sg88
I128
sbasg9
g10
((lp5861
(lp5862
S'defender.best_cost'
p5863
a(lp5864
(lp5865
S'n005'
p5866
ag433
aaaa(lp5867
S'defender.best_local_pref'
p5868
a(lp5869
(lp5870
S'n005'
p5871
aS'20'
p5872
aaaa(lp5873
S'defender.best_next_hop'
p5874
a(lp5875
(lp5876
S'n005'
p5877
aS'n001'
p5878
aaaa(lp5879
S'defender.policy'
p5880
a(lp5881
(lp5882
S'n001n005'
p5883
aS'20'
p5884
aa(lp5885
S'n005'
p5886
aS'10'
p5887
aaaa(lp5888
S'defender.rib_in'
p5889
a(lp5890
(lp5891
S'n005'
p5892
aS'n005'
p5893
aS'n005'
p5894
aa(lp5895
S'n005'
p5896
aS'n001'
p5897
aS'n001n005'
p5898
aaaa(lp5899
S'defender.rib_in_changed'
p5900
a(lp5901
(lp5902
S'n005'
p5903
aS'n001'
p5904
aaaa(lp5905
S'defender.rib_selected'
p5906
a(lp5907
(lp5908
S'n005'
p5909
aS'n001'
p5910
aS'n001n005'
p5911
aaaa(lp5912
S'neighbour'
p5913
a(lp5914
(lp5915
S'n001'
p5916
aa(lp5917
S'n004'
p5918
aa(lp5919
S'n005'
p5920
aaaa(lp5921
g3409
a(lp5922
aa(lp5923
g3412
a(lp5924
aa(lp5925
g3476
a(lp5926
aa(lp5927
g3415
a(lp5928
aa(lp5929
g3439
a(lp5930
aatp5931
Rp5932
sg68
g3383
sg69
I35
sg70
(lp5933
(iHistoryObjects
Message
p5934
(dp5935
g78
S'n002'
p5936
sg80
S'n004'
p5937
sg81
(lp5938
S'n005'
p5939
aS'n002n001n005'
p5940
asg83
I1
sg84
S'defender.advert'
p5941
sg86
S'2013-09-24 18:10:22.319'
p5942
sg69
I35
sg88
I68
sba(iHistoryObjects
Message
p5943
(dp5944
g78
S'n002'
p5945
sg80
S'n001'
p5946
sg81
(lp5947
S'n005'
p5948
asg83
I1
sg84
S'defender.withdraw'
p5949
sg86
S'2013-09-24 18:10:22.327'
p5950
sg69
I35
sg88
I69
sba(iHistoryObjects
Message
p5951
(dp5952
g78
S'n002'
p5953
sg80
S'n005'
p5954
sg81
(lp5955
S'n005'
p5956
asg83
I1
sg84
S'defender.withdraw'
p5957
sg86
S'2013-09-24 18:10:22.327'
p5958
sg69
I35
sg88
I70
sbasbasS'n003'
p5959
(lp5960
(iHistoryObjects
State
p5961
(dp5962
g5
(lp5963
sg7
(lp5964
sg9
g10
((lp5965
(lp5966
S'defender.cadd_policy'
p5967
a(lp5968
(lp5969
S'n004n002n005'
p5970
aS'20'
p5971
aa(lp5972
S'n005'
p5973
aS'10'
p5974
aaaa(lp5975
S'neighbour'
p5976
a(lp5977
(lp5978
S'n001'
p5979
aa(lp5980
S'n004'
p5981
aa(lp5982
S'n005'
p5983
aaaa(lp5984
S'defender.cdel_neighbour'
p5985
a(lp5986
aa(lp5987
S'defender.cadd_neighbour'
p5988
a(lp5989
aa(lp5990
S'defender.cdel_policy'
p5991
a(lp5992
aa(lp5993
S'defender.policy'
p5994
a(lp5995
aa(lp5996
S'defender.rib_in_changed'
p5997
a(lp5998
aa(lp5999
S'defender.rib_in'
p6000
a(lp6001
aa(lp6002
S'defender.best_local_pref'
p6003
a(lp6004
aa(lp6005
S'defender.best_cost'
p6006
a(lp6007
aa(lp6008
S'defender.best_next_hop'
p6009
a(lp6010
aa(lp6011
S'defender.rib_selected'
p6012
a(lp6013
aa(lp6014
S'defender.deleted'
p6015
a(lp6016
aatp6017
Rp6018
sg68
g5959
sg69
I0
sg70
(lp6019
sba(iHistoryObjects
State
p6020
(dp6021
g5
(lp6022
sg7
(lp6023
(iHistoryObjects
Message
p6024
(dp6025
g78
g79
sg80
g5959
sg81
(lp6026
sg83
I1
sg84
S'defender.start'
p6027
sg86
g87
sg88
I-1
sbasg9
g10
((lp6028
(lp6029
S'defender.policy'
p6030
a(lp6031
(lp6032
S'n004n002n005'
p6033
aS'20'
p6034
aa(lp6035
S'n005'
p6036
aS'10'
p6037
aaaa(lp6038
S'neighbour'
p6039
a(lp6040
(lp6041
S'n001'
p6042
aa(lp6043
S'n004'
p6044
aa(lp6045
S'n005'
p6046
aaaa(lp6047
g5985
a(lp6048
aa(lp6049
g5988
a(lp6050
aa(lp6051
S'defender.cadd_policy'
p6052
a(lp6053
aa(lp6054
g5991
a(lp6055
aa(lp6056
g5997
a(lp6057
aa(lp6058
g6000
a(lp6059
aa(lp6060
g6003
a(lp6061
aa(lp6062
g6006
a(lp6063
aa(lp6064
g6009
a(lp6065
aa(lp6066
g6012
a(lp6067
aa(lp6068
g6015
a(lp6069
aatp6070
Rp6071
sg68
g5959
sg69
I1
sg70
(lp6072
(iHistoryObjects
Message
p6073
(dp6074
g78
S'n003'
p6075
sg80
S'n001'
p6076
sg81
(lp6077
S'n003'
p6078
aS'n003'
p6079
asg83
I0
sg84
S'defender.advert'
p6080
sg86
S'2013-09-24 18:09:20.128'
p6081
sg88
I71
sba(iHistoryObjects
Message
p6082
(dp6083
g78
S'n003'
p6084
sg80
S'n004'
p6085
sg81
(lp6086
S'n003'
p6087
aS'n003'
p6088
asg83
I0
sg84
S'defender.advert'
p6089
sg86
S'2013-09-24 18:09:20.128'
p6090
sg88
I72
sba(iHistoryObjects
Message
p6091
(dp6092
g78
S'n003'
p6093
sg80
S'n005'
p6094
sg81
(lp6095
S'n003'
p6096
aS'n003'
p6097
asg83
I0
sg84
S'defender.advert'
p6098
sg86
S'2013-09-24 18:09:20.128'
p6099
sg88
I73
sbasba(iHistoryObjects
State
p6100
(dp6101
g5
(lp6102
sg7
(lp6103
(iHistoryObjects
Message
p6104
(dp6105
g78
S'n005'
p6106
sg80
S'n003'
p6107
sg81
(lp6108
S'n005'
p6109
aS'n005'
p6110
asg83
I1
sg84
S'defender.advert'
p6111
sg86
S'2013-09-24 18:09:20.031'
p6112
sg88
I37
sbasg9
g10
((lp6113
(lp6114
S'defender.best_cost'
p6115
a(lp6116
(lp6117
S'n005'
p6118
ag245
aaaa(lp6119
S'defender.best_local_pref'
p6120
a(lp6121
(lp6122
S'n005'
p6123
aS'10'
p6124
aaaa(lp6125
S'defender.best_next_hop'
p6126
a(lp6127
(lp6128
S'n005'
p6129
aS'n005'
p6130
aaaa(lp6131
S'defender.policy'
p6132
a(lp6133
(lp6134
S'n004n002n005'
p6135
aS'20'
p6136
aa(lp6137
S'n005'
p6138
aS'10'
p6139
aaaa(lp6140
S'defender.rib_in'
p6141
a(lp6142
(lp6143
S'n005'
p6144
aS'n005'
p6145
aS'n005'
p6146
aaaa(lp6147
S'defender.rib_in_changed'
p6148
a(lp6149
(lp6150
S'n005'
p6151
aS'n005'
p6152
aaaa(lp6153
S'defender.rib_selected'
p6154
a(lp6155
(lp6156
S'n005'
p6157
aS'n005'
p6158
aS'n005'
p6159
aaaa(lp6160
S'neighbour'
p6161
a(lp6162
(lp6163
S'n001'
p6164
aa(lp6165
S'n004'
p6166
aa(lp6167
S'n005'
p6168
aaaa(lp6169
g5985
a(lp6170
aa(lp6171
g5988
a(lp6172
aa(lp6173
g6052
a(lp6174
aa(lp6175
g5991
a(lp6176
aa(lp6177
g6015
a(lp6178
aatp6179
Rp6180
sg68
g5959
sg69
I2
sg70
(lp6181
(iHistoryObjects
Message
p6182
(dp6183
g78
S'n003'
p6184
sg80
S'n001'
p6185
sg81
(lp6186
S'n005'
p6187
aS'n003n005'
p6188
asg83
I0
sg84
S'defender.advert'
p6189
sg86
S'2013-09-24 18:09:22.231'
p6190
sg88
I74
sba(iHistoryObjects
Message
p6191
(dp6192
g78
S'n003'
p6193
sg80
S'n004'
p6194
sg81
(lp6195
S'n005'
p6196
aS'n003n005'
p6197
asg83
I0
sg84
S'defender.advert'
p6198
sg86
S'2013-09-24 18:09:22.231'
p6199
sg88
I75
sba(iHistoryObjects
Message
p6200
(dp6201
g78
S'n003'
p6202
sg80
S'n005'
p6203
sg81
(lp6204
S'n005'
p6205
asg83
I0
sg84
S'defender.withdraw'
p6206
sg86
S'2013-09-24 18:09:22.287'
p6207
sg88
I76
sbasba(iHistoryObjects
State
p6208
(dp6209
g5
(lp6210
sg7
(lp6211
(iHistoryObjects
Message
p6212
(dp6213
g78
S'n001'
p6214
sg80
S'n003'
p6215
sg81
(lp6216
S'n001'
p6217
aS'n001'
p6218
asg83
I1
sg84
S'defender.advert'
p6219
sg86
S'2013-09-24 18:09:20.029'
p6220
sg88
I103
sbasg9
g10
((lp6221
(lp6222
S'defender.best_cost'
p6223
a(lp6224
(lp6225
S'n005'
p6226
ag245
aaaa(lp6227
S'defender.best_local_pref'
p6228
a(lp6229
(lp6230
S'n005'
p6231
aS'10'
p6232
aaaa(lp6233
S'defender.best_next_hop'
p6234
a(lp6235
(lp6236
S'n005'
p6237
aS'n005'
p6238
aaaa(lp6239
S'defender.policy'
p6240
a(lp6241
(lp6242
S'n004n002n005'
p6243
aS'20'
p6244
aa(lp6245
S'n005'
p6246
aS'10'
p6247
aaaa(lp6248
S'defender.rib_in'
p6249
a(lp6250
(lp6251
S'n005'
p6252
aS'n005'
p6253
aS'n005'
p6254
aaaa(lp6255
S'defender.rib_in_changed'
p6256
a(lp6257
(lp6258
S'n001'
p6259
aS'n001'
p6260
aaaa(lp6261
S'defender.rib_selected'
p6262
a(lp6263
(lp6264
S'n005'
p6265
aS'n005'
p6266
aS'n005'
p6267
aaaa(lp6268
S'neighbour'
p6269
a(lp6270
(lp6271
S'n001'
p6272
aa(lp6273
S'n004'
p6274
aa(lp6275
S'n005'
p6276
aaaa(lp6277
g5985
a(lp6278
aa(lp6279
g5988
a(lp6280
aa(lp6281
g6052
a(lp6282
aa(lp6283
g5991
a(lp6284
aa(lp6285
g6015
a(lp6286
aatp6287
Rp6288
sg68
g5959
sg69
I3
sg70
(lp6289
sba(iHistoryObjects
State
p6290
(dp6291
g5
(lp6292
sg7
(lp6293
(iHistoryObjects
Message
p6294
(dp6295
g78
S'n004'
p6296
sg80
S'n003'
p6297
sg81
(lp6298
S'n004'
p6299
aS'n004'
p6300
asg83
I1
sg84
S'defender.advert'
p6301
sg86
S'2013-09-24 18:09:20.254'
p6302
sg88
I2
sbasg9
g10
((lp6303
(lp6304
S'defender.best_cost'
p6305
a(lp6306
(lp6307
S'n005'
p6308
ag245
aaaa(lp6309
S'defender.best_local_pref'
p6310
a(lp6311
(lp6312
S'n005'
p6313
aS'10'
p6314
aaaa(lp6315
S'defender.best_next_hop'
p6316
a(lp6317
(lp6318
S'n005'
p6319
aS'n005'
p6320
aaaa(lp6321
S'defender.policy'
p6322
a(lp6323
(lp6324
S'n004n002n005'
p6325
aS'20'
p6326
aa(lp6327
S'n005'
p6328
aS'10'
p6329
aaaa(lp6330
S'defender.rib_in'
p6331
a(lp6332
(lp6333
S'n005'
p6334
aS'n005'
p6335
aS'n005'
p6336
aaaa(lp6337
S'defender.rib_in_changed'
p6338
a(lp6339
(lp6340
S'n004'
p6341
aS'n004'
p6342
aaaa(lp6343
S'defender.rib_selected'
p6344
a(lp6345
(lp6346
S'n005'
p6347
aS'n005'
p6348
aS'n005'
p6349
aaaa(lp6350
S'neighbour'
p6351
a(lp6352
(lp6353
S'n001'
p6354
aa(lp6355
S'n004'
p6356
aa(lp6357
S'n005'
p6358
aaaa(lp6359
g5985
a(lp6360
aa(lp6361
g5988
a(lp6362
aa(lp6363
g6052
a(lp6364
aa(lp6365
g5991
a(lp6366
aa(lp6367
g6015
a(lp6368
aatp6369
Rp6370
sg68
g5959
sg69
I4
sg70
(lp6371
sba(iHistoryObjects
State
p6372
(dp6373
g5
(lp6374
sg7
(lp6375
(iHistoryObjects
Message
p6376
(dp6377
g78
S'n001'
p6378
sg80
S'n003'
p6379
sg81
(lp6380
S'n005'
p6381
aS'n001n005'
p6382
asg83
I1
sg84
S'defender.advert'
p6383
sg86
S'2013-09-24 18:09:24.087'
p6384
sg88
I105
sbasg9
g10
((lp6385
(lp6386
S'defender.best_cost'
p6387
a(lp6388
(lp6389
S'n005'
p6390
ag245
aaaa(lp6391
S'defender.best_local_pref'
p6392
a(lp6393
(lp6394
S'n005'
p6395
aS'10'
p6396
aaaa(lp6397
S'defender.best_next_hop'
p6398
a(lp6399
(lp6400
S'n005'
p6401
aS'n005'
p6402
aaaa(lp6403
S'defender.policy'
p6404
a(lp6405
(lp6406
S'n004n002n005'
p6407
aS'20'
p6408
aa(lp6409
S'n005'
p6410
aS'10'
p6411
aaaa(lp6412
S'defender.rib_in'
p6413
a(lp6414
(lp6415
S'n005'
p6416
aS'n005'
p6417
aS'n005'
p6418
aaaa(lp6419
S'defender.rib_in_changed'
p6420
a(lp6421
(lp6422
S'n005'
p6423
aS'n001'
p6424
aaaa(lp6425
S'defender.rib_selected'
p6426
a(lp6427
(lp6428
S'n005'
p6429
aS'n005'
p6430
aS'n005'
p6431
aaaa(lp6432
S'neighbour'
p6433
a(lp6434
(lp6435
S'n001'
p6436
aa(lp6437
S'n004'
p6438
aa(lp6439
S'n005'
p6440
aaaa(lp6441
g5985
a(lp6442
aa(lp6443
g5988
a(lp6444
aa(lp6445
g6052
a(lp6446
aa(lp6447
g5991
a(lp6448
aa(lp6449
g6015
a(lp6450
aatp6451
Rp6452
sg68
g5959
sg69
I5
sg70
(lp6453
sba(iHistoryObjects
State
p6454
(dp6455
g5
(lp6456
sg7
(lp6457
(iHistoryObjects
Message
p6458
(dp6459
g78
S'n004'
p6460
sg80
S'n003'
p6461
sg81
(lp6462
S'n005'
p6463
aS'n004n005'
p6464
asg83
I1
sg84
S'defender.advert'
p6465
sg86
S'2013-09-24 18:09:24.28'
p6466
sg88
I4
sbasg9
g10
((lp6467
(lp6468
S'defender.best_cost'
p6469
a(lp6470
(lp6471
S'n005'
p6472
ag245
aaaa(lp6473
S'defender.best_local_pref'
p6474
a(lp6475
(lp6476
S'n005'
p6477
aS'10'
p6478
aaaa(lp6479
S'defender.best_next_hop'
p6480
a(lp6481
(lp6482
S'n005'
p6483
aS'n005'
p6484
aaaa(lp6485
S'defender.policy'
p6486
a(lp6487
(lp6488
S'n004n002n005'
p6489
aS'20'
p6490
aa(lp6491
S'n005'
p6492
aS'10'
p6493
aaaa(lp6494
S'defender.rib_in'
p6495
a(lp6496
(lp6497
S'n005'
p6498
aS'n005'
p6499
aS'n005'
p6500
aaaa(lp6501
S'defender.rib_in_changed'
p6502
a(lp6503
(lp6504
S'n005'
p6505
aS'n004'
p6506
aaaa(lp6507
S'defender.rib_selected'
p6508
a(lp6509
(lp6510
S'n005'
p6511
aS'n005'
p6512
aS'n005'
p6513
aaaa(lp6514
S'neighbour'
p6515
a(lp6516
(lp6517
S'n001'
p6518
aa(lp6519
S'n004'
p6520
aa(lp6521
S'n005'
p6522
aaaa(lp6523
g5985
a(lp6524
aa(lp6525
g5988
a(lp6526
aa(lp6527
g6052
a(lp6528
aa(lp6529
g5991
a(lp6530
aa(lp6531
g6015
a(lp6532
aatp6533
Rp6534
sg68
g5959
sg69
I6
sg70
(lp6535
sba(iHistoryObjects
State
p6536
(dp6537
g5
(lp6538
sg7
(lp6539
(iHistoryObjects
Message
p6540
(dp6541
g78
S'n004'
p6542
sg80
S'n003'
p6543
sg81
(lp6544
S'n005'
p6545
asg83
I1
sg84
S'defender.withdraw'
p6546
sg86
S'2013-09-24 18:09:34.233'
p6547
sg88
I7
sbasg9
g10
((lp6548
(lp6549
S'defender.best_cost'
p6550
a(lp6551
(lp6552
S'n005'
p6553
ag245
aaaa(lp6554
S'defender.best_local_pref'
p6555
a(lp6556
(lp6557
S'n005'
p6558
aS'10'
p6559
aaaa(lp6560
S'defender.best_next_hop'
p6561
a(lp6562
(lp6563
S'n005'
p6564
aS'n005'
p6565
aaaa(lp6566
S'defender.policy'
p6567
a(lp6568
(lp6569
S'n004n002n005'
p6570
aS'20'
p6571
aa(lp6572
S'n005'
p6573
aS'10'
p6574
aaaa(lp6575
S'defender.rib_in'
p6576
a(lp6577
(lp6578
S'n005'
p6579
aS'n005'
p6580
aS'n005'
p6581
aaaa(lp6582
S'defender.rib_in_changed'
p6583
a(lp6584
(lp6585
S'n005'
p6586
aS'n004'
p6587
aaaa(lp6588
S'defender.rib_selected'
p6589
a(lp6590
(lp6591
S'n005'
p6592
aS'n005'
p6593
aS'n005'
p6594
aaaa(lp6595
S'neighbour'
p6596
a(lp6597
(lp6598
S'n001'
p6599
aa(lp6600
S'n004'
p6601
aa(lp6602
S'n005'
p6603
aaaa(lp6604
g5985
a(lp6605
aa(lp6606
g5988
a(lp6607
aa(lp6608
g6052
a(lp6609
aa(lp6610
g5991
a(lp6611
aa(lp6612
g6015
a(lp6613
aatp6614
Rp6615
sg68
g5959
sg69
I7
sg70
(lp6616
sba(iHistoryObjects
State
p6617
(dp6618
g5
(lp6619
sg7
(lp6620
(iHistoryObjects
Message
p6621
(dp6622
g78
S'n004'
p6623
sg80
S'n003'
p6624
sg81
(lp6625
S'n005'
p6626
asg83
I1
sg84
S'defender.withdraw'
p6627
sg86
S'2013-09-24 18:09:35.889'
p6628
sg88
I9
sbasg9
g10
((lp6629
(lp6630
S'defender.best_cost'
p6631
a(lp6632
(lp6633
S'n005'
p6634
ag245
aaaa(lp6635
S'defender.best_local_pref'
p6636
a(lp6637
(lp6638
S'n005'
p6639
aS'10'
p6640
aaaa(lp6641
S'defender.best_next_hop'
p6642
a(lp6643
(lp6644
S'n005'
p6645
aS'n005'
p6646
aaaa(lp6647
S'defender.policy'
p6648
a(lp6649
(lp6650
S'n004n002n005'
p6651
aS'20'
p6652
aa(lp6653
S'n005'
p6654
aS'10'
p6655
aaaa(lp6656
S'defender.rib_in'
p6657
a(lp6658
(lp6659
S'n005'
p6660
aS'n005'
p6661
aS'n005'
p6662
aaaa(lp6663
S'defender.rib_in_changed'
p6664
a(lp6665
(lp6666
S'n005'
p6667
aS'n004'
p6668
aaaa(lp6669
S'defender.rib_selected'
p6670
a(lp6671
(lp6672
S'n005'
p6673
aS'n005'
p6674
aS'n005'
p6675
aaaa(lp6676
S'neighbour'
p6677
a(lp6678
(lp6679
S'n001'
p6680
aa(lp6681
S'n004'
p6682
aa(lp6683
S'n005'
p6684
aaaa(lp6685
g5985
a(lp6686
aa(lp6687
g5988
a(lp6688
aa(lp6689
g6052
a(lp6690
aa(lp6691
g5991
a(lp6692
aa(lp6693
g6015
a(lp6694
aatp6695
Rp6696
sg68
g5959
sg69
I8
sg70
(lp6697
sba(iHistoryObjects
State
p6698
(dp6699
g5
(lp6700
sg7
(lp6701
(iHistoryObjects
Message
p6702
(dp6703
g78
S'n004'
p6704
sg80
S'n003'
p6705
sg81
(lp6706
S'n005'
p6707
aS'n004n002n005'
p6708
asg83
I1
sg84
S'defender.advert'
p6709
sg86
S'2013-09-24 18:09:37.459'
p6710
sg88
I10
sbasg9
g10
((lp6711
(lp6712
S'defender.best_cost'
p6713
a(lp6714
(lp6715
S'n005'
p6716
aS'12'
p6717
aaaa(lp6718
S'defender.best_local_pref'
p6719
a(lp6720
(lp6721
S'n005'
p6722
aS'20'
p6723
aaaa(lp6724
S'defender.best_next_hop'
p6725
a(lp6726
(lp6727
S'n005'
p6728
aS'n004'
p6729
aaaa(lp6730
S'defender.policy'
p6731
a(lp6732
(lp6733
S'n004n002n005'
p6734
aS'20'
p6735
aa(lp6736
S'n005'
p6737
aS'10'
p6738
aaaa(lp6739
S'defender.rib_in'
p6740
a(lp6741
(lp6742
S'n005'
p6743
aS'n005'
p6744
aS'n005'
p6745
aa(lp6746
S'n005'
p6747
aS'n004'
p6748
aS'n004n002n005'
p6749
aaaa(lp6750
S'defender.rib_in_changed'
p6751
a(lp6752
(lp6753
S'n005'
p6754
aS'n004'
p6755
aaaa(lp6756
S'defender.rib_selected'
p6757
a(lp6758
(lp6759
S'n005'
p6760
aS'n004'
p6761
aS'n004n002n005'
p6762
aaaa(lp6763
S'neighbour'
p6764
a(lp6765
(lp6766
S'n001'
p6767
aa(lp6768
S'n004'
p6769
aa(lp6770
S'n005'
p6771
aaaa(lp6772
g5985
a(lp6773
aa(lp6774
g5988
a(lp6775
aa(lp6776
g6052
a(lp6777
aa(lp6778
g5991
a(lp6779
aa(lp6780
g6015
a(lp6781
aatp6782
Rp6783
sg68
g5959
sg69
I9
sg70
(lp6784
(iHistoryObjects
Message
p6785
(dp6786
g78
S'n003'
p6787
sg80
S'n001'
p6788
sg81
(lp6789
S'n005'
p6790
aS'n003n004n002n005'
p6791
asg83
I0
sg84
S'defender.advert'
p6792
sg86
S'2013-09-24 18:09:39.346'
p6793
sg88
I77
sba(iHistoryObjects
Message
p6794
(dp6795
g78
S'n003'
p6796
sg80
S'n004'
p6797
sg81
(lp6798
S'n005'
p6799
asg83
I0
sg84
S'defender.withdraw'
p6800
sg86
S'2013-09-24 18:09:39.373'
p6801
sg88
I78
sba(iHistoryObjects
Message
p6802
(dp6803
g78
S'n003'
p6804
sg80
S'n005'
p6805
sg81
(lp6806
S'n005'
p6807
asg83
I0
sg84
S'defender.withdraw'
p6808
sg86
S'2013-09-24 18:09:39.373'
p6809
sg88
I79
sbasba(iHistoryObjects
State
p6810
(dp6811
g5
(lp6812
sg7
(lp6813
(iHistoryObjects
Message
p6814
(dp6815
g78
S'n001'
p6816
sg80
S'n003'
p6817
sg81
(lp6818
S'n005'
p6819
asg83
I1
sg84
S'defender.withdraw'
p6820
sg86
S'2013-09-24 18:09:39.773'
p6821
sg88
I109
sbasg9
g10
((lp6822
(lp6823
S'defender.best_cost'
p6824
a(lp6825
(lp6826
S'n005'
p6827
aS'12'
p6828
aaaa(lp6829
S'defender.best_local_pref'
p6830
a(lp6831
(lp6832
S'n005'
p6833
aS'20'
p6834
aaaa(lp6835
S'defender.best_next_hop'
p6836
a(lp6837
(lp6838
S'n005'
p6839
aS'n004'
p6840
aaaa(lp6841
S'defender.policy'
p6842
a(lp6843
(lp6844
S'n004n002n005'
p6845
aS'20'
p6846
aa(lp6847
S'n005'
p6848
aS'10'
p6849
aaaa(lp6850
S'defender.rib_in'
p6851
a(lp6852
(lp6853
S'n005'
p6854
aS'n004'
p6855
aS'n004n002n005'
p6856
aa(lp6857
S'n005'
p6858
aS'n005'
p6859
aS'n005'
p6860
aaaa(lp6861
S'defender.rib_in_changed'
p6862
a(lp6863
(lp6864
S'n005'
p6865
aS'n001'
p6866
aaaa(lp6867
S'defender.rib_selected'
p6868
a(lp6869
(lp6870
S'n005'
p6871
aS'n004'
p6872
aS'n004n002n005'
p6873
aaaa(lp6874
S'neighbour'
p6875
a(lp6876
(lp6877
S'n001'
p6878
aa(lp6879
S'n004'
p6880
aa(lp6881
S'n005'
p6882
aaaa(lp6883
g5985
a(lp6884
aa(lp6885
g5988
a(lp6886
aa(lp6887
g6052
a(lp6888
aa(lp6889
g5991
a(lp6890
aa(lp6891
g6015
a(lp6892
aatp6893
Rp6894
sg68
g5959
sg69
I11
sg70
(lp6895
sba(iHistoryObjects
State
p6896
(dp6897
g5
(lp6898
sg7
(lp6899
(iHistoryObjects
Message
p6900
(dp6901
g78
S'n004'
p6902
sg80
S'n003'
p6903
sg81
(lp6904
S'n005'
p6905
asg83
I1
sg84
S'defender.withdraw'
p6906
sg86
S'2013-09-24 18:09:43.336'
p6907
sg88
I13
sbasg9
g10
((lp6908
(lp6909
S'defender.best_cost'
p6910
a(lp6911
(lp6912
S'n005'
p6913
ag245
aaaa(lp6914
S'defender.best_local_pref'
p6915
a(lp6916
(lp6917
S'n005'
p6918
aS'10'
p6919
aaaa(lp6920
S'defender.best_next_hop'
p6921
a(lp6922
(lp6923
S'n005'
p6924
aS'n005'
p6925
aaaa(lp6926
S'defender.policy'
p6927
a(lp6928
(lp6929
S'n004n002n005'
p6930
aS'20'
p6931
aa(lp6932
S'n005'
p6933
aS'10'
p6934
aaaa(lp6935
S'defender.rib_in'
p6936
a(lp6937
(lp6938
S'n005'
p6939
aS'n005'
p6940
aS'n005'
p6941
aaaa(lp6942
S'defender.rib_in_changed'
p6943
a(lp6944
(lp6945
S'n005'
p6946
aS'n004'
p6947
aaaa(lp6948
S'defender.rib_selected'
p6949
a(lp6950
(lp6951
S'n005'
p6952
aS'n005'
p6953
aS'n005'
p6954
aaaa(lp6955
S'neighbour'
p6956
a(lp6957
(lp6958
S'n001'
p6959
aa(lp6960
S'n004'
p6961
aa(lp6962
S'n005'
p6963
aaaa(lp6964
g5985
a(lp6965
aa(lp6966
g5988
a(lp6967
aa(lp6968
g6052
a(lp6969
aa(lp6970
g5991
a(lp6971
aa(lp6972
g6015
a(lp6973
aatp6974
Rp6975
sg68
g5959
sg69
I12
sg70
(lp6976
(iHistoryObjects
Message
p6977
(dp6978
g78
S'n003'
p6979
sg80
S'n001'
p6980
sg81
(lp6981
S'n005'
p6982
aS'n003n005'
p6983
asg83
I0
sg84
S'defender.advert'
p6984
sg86
S'2013-09-24 18:09:44.003'
p6985
sg88
I80
sba(iHistoryObjects
Message
p6986
(dp6987
g78
S'n003'
p6988
sg80
S'n004'
p6989
sg81
(lp6990
S'n005'
p6991
aS'n003n005'
p6992
asg83
I0
sg84
S'defender.advert'
p6993
sg86
S'2013-09-24 18:09:44.003'
p6994
sg88
I81
sba(iHistoryObjects
Message
p6995
(dp6996
g78
S'n003'
p6997
sg80
S'n005'
p6998
sg81
(lp6999
S'n005'
p7000
asg83
I0
sg84
S'defender.withdraw'
p7001
sg86
S'2013-09-24 18:09:44.014'
p7002
sg88
I82
sbasba(iHistoryObjects
State
p7003
(dp7004
g5
(lp7005
sg7
(lp7006
(iHistoryObjects
Message
p7007
(dp7008
g78
S'n001'
p7009
sg80
S'n003'
p7010
sg81
(lp7011
S'n005'
p7012
aS'n001n005'
p7013
asg83
I1
sg84
S'defender.advert'
p7014
sg86
S'2013-09-24 18:09:45.906'
p7015
sg88
I111
sbasg9
g10
((lp7016
(lp7017
S'defender.best_cost'
p7018
a(lp7019
(lp7020
S'n005'
p7021
ag245
aaaa(lp7022
S'defender.best_local_pref'
p7023
a(lp7024
(lp7025
S'n005'
p7026
aS'10'
p7027
aaaa(lp7028
S'defender.best_next_hop'
p7029
a(lp7030
(lp7031
S'n005'
p7032
aS'n005'
p7033
aaaa(lp7034
S'defender.policy'
p7035
a(lp7036
(lp7037
S'n004n002n005'
p7038
aS'20'
p7039
aa(lp7040
S'n005'
p7041
aS'10'
p7042
aaaa(lp7043
S'defender.rib_in'
p7044
a(lp7045
(lp7046
S'n005'
p7047
aS'n005'
p7048
aS'n005'
p7049
aaaa(lp7050
S'defender.rib_in_changed'
p7051
a(lp7052
(lp7053
S'n005'
p7054
aS'n001'
p7055
aaaa(lp7056
S'defender.rib_selected'
p7057
a(lp7058
(lp7059
S'n005'
p7060
aS'n005'
p7061
aS'n005'
p7062
aaaa(lp7063
S'neighbour'
p7064
a(lp7065
(lp7066
S'n001'
p7067
aa(lp7068
S'n004'
p7069
aa(lp7070
S'n005'
p7071
aaaa(lp7072
g5985
a(lp7073
aa(lp7074
g5988
a(lp7075
aa(lp7076
g6052
a(lp7077
aa(lp7078
g5991
a(lp7079
aa(lp7080
g6015
a(lp7081
aatp7082
Rp7083
sg68
g5959
sg69
I14
sg70
(lp7084
sba(iHistoryObjects
State
p7085
(dp7086
g5
(lp7087
sg7
(lp7088
(iHistoryObjects
Message
p7089
(dp7090
g78
S'n004'
p7091
sg80
S'n003'
p7092
sg81
(lp7093
S'n005'
p7094
asg83
I1
sg84
S'defender.withdraw'
p7095
sg86
S'2013-09-24 18:09:47.754'
p7096
sg88
I15
sbasg9
g10
((lp7097
(lp7098
S'defender.best_cost'
p7099
a(lp7100
(lp7101
S'n005'
p7102
ag245
aaaa(lp7103
S'defender.best_local_pref'
p7104
a(lp7105
(lp7106
S'n005'
p7107
aS'10'
p7108
aaaa(lp7109
S'defender.best_next_hop'
p7110
a(lp7111
(lp7112
S'n005'
p7113
aS'n005'
p7114
aaaa(lp7115
S'defender.policy'
p7116
a(lp7117
(lp7118
S'n004n002n005'
p7119
aS'20'
p7120
aa(lp7121
S'n005'
p7122
aS'10'
p7123
aaaa(lp7124
S'defender.rib_in'
p7125
a(lp7126
(lp7127
S'n005'
p7128
aS'n005'
p7129
aS'n005'
p7130
aaaa(lp7131
S'defender.rib_in_changed'
p7132
a(lp7133
(lp7134
S'n005'
p7135
aS'n004'
p7136
aaaa(lp7137
S'defender.rib_selected'
p7138
a(lp7139
(lp7140
S'n005'
p7141
aS'n005'
p7142
aS'n005'
p7143
aaaa(lp7144
S'neighbour'
p7145
a(lp7146
(lp7147
S'n001'
p7148
aa(lp7149
S'n004'
p7150
aa(lp7151
S'n005'
p7152
aaaa(lp7153
g5985
a(lp7154
aa(lp7155
g5988
a(lp7156
aa(lp7157
g6052
a(lp7158
aa(lp7159
g5991
a(lp7160
aa(lp7161
g6015
a(lp7162
aatp7163
Rp7164
sg68
g5959
sg69
I15
sg70
(lp7165
sba(iHistoryObjects
State
p7166
(dp7167
g5
(lp7168
sg7
(lp7169
(iHistoryObjects
Message
p7170
(dp7171
g78
S'n004'
p7172
sg80
S'n003'
p7173
sg81
(lp7174
S'n005'
p7175
aS'n004n002n005'
p7176
asg83
I1
sg84
S'defender.advert'
p7177
sg86
S'2013-09-24 18:09:50.743'
p7178
sg88
I16
sbasg9
g10
((lp7179
(lp7180
S'defender.best_cost'
p7181
a(lp7182
(lp7183
S'n005'
p7184
aS'12'
p7185
aaaa(lp7186
S'defender.best_local_pref'
p7187
a(lp7188
(lp7189
S'n005'
p7190
aS'20'
p7191
aaaa(lp7192
S'defender.best_next_hop'
p7193
a(lp7194
(lp7195
S'n005'
p7196
aS'n004'
p7197
aaaa(lp7198
S'defender.policy'
p7199
a(lp7200
(lp7201
S'n004n002n005'
p7202
aS'20'
p7203
aa(lp7204
S'n005'
p7205
aS'10'
p7206
aaaa(lp7207
S'defender.rib_in'
p7208
a(lp7209
(lp7210
S'n005'
p7211
aS'n005'
p7212
aS'n005'
p7213
aa(lp7214
S'n005'
p7215
aS'n004'
p7216
aS'n004n002n005'
p7217
aaaa(lp7218
S'defender.rib_in_changed'
p7219
a(lp7220
(lp7221
S'n005'
p7222
aS'n004'
p7223
aaaa(lp7224
S'defender.rib_selected'
p7225
a(lp7226
(lp7227
S'n005'
p7228
aS'n004'
p7229
aS'n004n002n005'
p7230
aaaa(lp7231
S'neighbour'
p7232
a(lp7233
(lp7234
S'n001'
p7235
aa(lp7236
S'n004'
p7237
aa(lp7238
S'n005'
p7239
aaaa(lp7240
g5985
a(lp7241
aa(lp7242
g5988
a(lp7243
aa(lp7244
g6052
a(lp7245
aa(lp7246
g5991
a(lp7247
aa(lp7248
g6015
a(lp7249
aatp7250
Rp7251
sg68
g5959
sg69
I16
sg70
(lp7252
(iHistoryObjects
Message
p7253
(dp7254
g78
S'n003'
p7255
sg80
S'n001'
p7256
sg81
(lp7257
S'n005'
p7258
aS'n003n004n002n005'
p7259
asg83
I0
sg84
S'defender.advert'
p7260
sg86
S'2013-09-24 18:09:51.317'
p7261
sg88
I83
sba(iHistoryObjects
Message
p7262
(dp7263
g78
S'n003'
p7264
sg80
S'n004'
p7265
sg81
(lp7266
S'n005'
p7267
asg83
I0
sg84
S'defender.withdraw'
p7268
sg86
S'2013-09-24 18:09:51.326'
p7269
sg88
I84
sba(iHistoryObjects
Message
p7270
(dp7271
g78
S'n003'
p7272
sg80
S'n005'
p7273
sg81
(lp7274
S'n005'
p7275
asg83
I0
sg84
S'defender.withdraw'
p7276
sg86
S'2013-09-24 18:09:51.326'
p7277
sg88
I85
sbasba(iHistoryObjects
State
p7278
(dp7279
g5
(lp7280
sg7
(lp7281
(iHistoryObjects
Message
p7282
(dp7283
g78
S'n001'
p7284
sg80
S'n003'
p7285
sg81
(lp7286
S'n005'
p7287
asg83
I1
sg84
S'defender.withdraw'
p7288
sg86
S'2013-09-24 18:09:52.053'
p7289
sg88
I115
sbasg9
g10
((lp7290
(lp7291
S'defender.best_cost'
p7292
a(lp7293
(lp7294
S'n005'
p7295
aS'12'
p7296
aaaa(lp7297
S'defender.best_local_pref'
p7298
a(lp7299
(lp7300
S'n005'
p7301
aS'20'
p7302
aaaa(lp7303
S'defender.best_next_hop'
p7304
a(lp7305
(lp7306
S'n005'
p7307
aS'n004'
p7308
aaaa(lp7309
S'defender.policy'
p7310
a(lp7311
(lp7312
S'n004n002n005'
p7313
aS'20'
p7314
aa(lp7315
S'n005'
p7316
aS'10'
p7317
aaaa(lp7318
S'defender.rib_in'
p7319
a(lp7320
(lp7321
S'n005'
p7322
aS'n004'
p7323
aS'n004n002n005'
p7324
aa(lp7325
S'n005'
p7326
aS'n005'
p7327
aS'n005'
p7328
aaaa(lp7329
S'defender.rib_in_changed'
p7330
a(lp7331
(lp7332
S'n005'
p7333
aS'n001'
p7334
aaaa(lp7335
S'defender.rib_selected'
p7336
a(lp7337
(lp7338
S'n005'
p7339
aS'n004'
p7340
aS'n004n002n005'
p7341
aaaa(lp7342
S'neighbour'
p7343
a(lp7344
(lp7345
S'n001'
p7346
aa(lp7347
S'n004'
p7348
aa(lp7349
S'n005'
p7350
aaaa(lp7351
g5985
a(lp7352
aa(lp7353
g5988
a(lp7354
aa(lp7355
g6052
a(lp7356
aa(lp7357
g5991
a(lp7358
aa(lp7359
g6015
a(lp7360
aatp7361
Rp7362
sg68
g5959
sg69
I18
sg70
(lp7363
sba(iHistoryObjects
State
p7364
(dp7365
g5
(lp7366
sg7
(lp7367
(iHistoryObjects
Message
p7368
(dp7369
g78
S'n004'
p7370
sg80
S'n003'
p7371
sg81
(lp7372
S'n005'
p7373
asg83
I1
sg84
S'defender.withdraw'
p7374
sg86
S'2013-09-24 18:09:56.474'
p7375
sg88
I19
sbasg9
g10
((lp7376
(lp7377
S'defender.best_cost'
p7378
a(lp7379
(lp7380
S'n005'
p7381
ag245
aaaa(lp7382
S'defender.best_local_pref'
p7383
a(lp7384
(lp7385
S'n005'
p7386
aS'10'
p7387
aaaa(lp7388
S'defender.best_next_hop'
p7389
a(lp7390
(lp7391
S'n005'
p7392
aS'n005'
p7393
aaaa(lp7394
S'defender.policy'
p7395
a(lp7396
(lp7397
S'n004n002n005'
p7398
aS'20'
p7399
aa(lp7400
S'n005'
p7401
aS'10'
p7402
aaaa(lp7403
S'defender.rib_in'
p7404
a(lp7405
(lp7406
S'n005'
p7407
aS'n005'
p7408
aS'n005'
p7409
aaaa(lp7410
S'defender.rib_in_changed'
p7411
a(lp7412
(lp7413
S'n005'
p7414
aS'n004'
p7415
aaaa(lp7416
S'defender.rib_selected'
p7417
a(lp7418
(lp7419
S'n005'
p7420
aS'n005'
p7421
aS'n005'
p7422
aaaa(lp7423
S'neighbour'
p7424
a(lp7425
(lp7426
S'n001'
p7427
aa(lp7428
S'n004'
p7429
aa(lp7430
S'n005'
p7431
aaaa(lp7432
g5985
a(lp7433
aa(lp7434
g5988
a(lp7435
aa(lp7436
g6052
a(lp7437
aa(lp7438
g5991
a(lp7439
aa(lp7440
g6015
a(lp7441
aatp7442
Rp7443
sg68
g5959
sg69
I19
sg70
(lp7444
(iHistoryObjects
Message
p7445
(dp7446
g78
S'n003'
p7447
sg80
S'n001'
p7448
sg81
(lp7449
S'n005'
p7450
aS'n003n005'
p7451
asg83
I0
sg84
S'defender.advert'
p7452
sg86
S'2013-09-24 18:09:56.755'
p7453
sg88
I86
sba(iHistoryObjects
Message
p7454
(dp7455
g78
S'n003'
p7456
sg80
S'n004'
p7457
sg81
(lp7458
S'n005'
p7459
aS'n003n005'
p7460
asg83
I0
sg84
S'defender.advert'
p7461
sg86
S'2013-09-24 18:09:56.755'
p7462
sg88
I87
sba(iHistoryObjects
Message
p7463
(dp7464
g78
S'n003'
p7465
sg80
S'n005'
p7466
sg81
(lp7467
S'n005'
p7468
asg83
I0
sg84
S'defender.withdraw'
p7469
sg86
S'2013-09-24 18:09:56.765'
p7470
sg88
I88
sbasba(iHistoryObjects
State
p7471
(dp7472
g5
(lp7473
sg7
(lp7474
(iHistoryObjects
Message
p7475
(dp7476
g78
S'n001'
p7477
sg80
S'n003'
p7478
sg81
(lp7479
S'n005'
p7480
aS'n001n005'
p7481
asg83
I1
sg84
S'defender.advert'
p7482
sg86
S'2013-09-24 18:09:57.668'
p7483
sg88
I117
sbasg9
g10
((lp7484
(lp7485
S'defender.best_cost'
p7486
a(lp7487
(lp7488
S'n005'
p7489
ag245
aaaa(lp7490
S'defender.best_local_pref'
p7491
a(lp7492
(lp7493
S'n005'
p7494
aS'10'
p7495
aaaa(lp7496
S'defender.best_next_hop'
p7497
a(lp7498
(lp7499
S'n005'
p7500
aS'n005'
p7501
aaaa(lp7502
S'defender.policy'
p7503
a(lp7504
(lp7505
S'n004n002n005'
p7506
aS'20'
p7507
aa(lp7508
S'n005'
p7509
aS'10'
p7510
aaaa(lp7511
S'defender.rib_in'
p7512
a(lp7513
(lp7514
S'n005'
p7515
aS'n005'
p7516
aS'n005'
p7517
aaaa(lp7518
S'defender.rib_in_changed'
p7519
a(lp7520
(lp7521
S'n005'
p7522
aS'n001'
p7523
aaaa(lp7524
S'defender.rib_selected'
p7525
a(lp7526
(lp7527
S'n005'
p7528
aS'n005'
p7529
aS'n005'
p7530
aaaa(lp7531
S'neighbour'
p7532
a(lp7533
(lp7534
S'n001'
p7535
aa(lp7536
S'n004'
p7537
aa(lp7538
S'n005'
p7539
aaaa(lp7540
g5985
a(lp7541
aa(lp7542
g5988
a(lp7543
aa(lp7544
g6052
a(lp7545
aa(lp7546
g5991
a(lp7547
aa(lp7548
g6015
a(lp7549
aatp7550
Rp7551
sg68
g5959
sg69
I21
sg70
(lp7552
sba(iHistoryObjects
State
p7553
(dp7554
g5
(lp7555
sg7
(lp7556
(iHistoryObjects
Message
p7557
(dp7558
g78
S'n004'
p7559
sg80
S'n003'
p7560
sg81
(lp7561
S'n005'
p7562
asg83
I1
sg84
S'defender.withdraw'
p7563
sg86
S'2013-09-24 18:09:59.225'
p7564
sg88
I21
sbasg9
g10
((lp7565
(lp7566
S'defender.best_cost'
p7567
a(lp7568
(lp7569
S'n005'
p7570
ag245
aaaa(lp7571
S'defender.best_local_pref'
p7572
a(lp7573
(lp7574
S'n005'
p7575
aS'10'
p7576
aaaa(lp7577
S'defender.best_next_hop'
p7578
a(lp7579
(lp7580
S'n005'
p7581
aS'n005'
p7582
aaaa(lp7583
S'defender.policy'
p7584
a(lp7585
(lp7586
S'n004n002n005'
p7587
aS'20'
p7588
aa(lp7589
S'n005'
p7590
aS'10'
p7591
aaaa(lp7592
S'defender.rib_in'
p7593
a(lp7594
(lp7595
S'n005'
p7596
aS'n005'
p7597
aS'n005'
p7598
aaaa(lp7599
S'defender.rib_in_changed'
p7600
a(lp7601
(lp7602
S'n005'
p7603
aS'n004'
p7604
aaaa(lp7605
S'defender.rib_selected'
p7606
a(lp7607
(lp7608
S'n005'
p7609
aS'n005'
p7610
aS'n005'
p7611
aaaa(lp7612
S'neighbour'
p7613
a(lp7614
(lp7615
S'n001'
p7616
aa(lp7617
S'n004'
p7618
aa(lp7619
S'n005'
p7620
aaaa(lp7621
g5985
a(lp7622
aa(lp7623
g5988
a(lp7624
aa(lp7625
g6052
a(lp7626
aa(lp7627
g5991
a(lp7628
aa(lp7629
g6015
a(lp7630
aatp7631
Rp7632
sg68
g5959
sg69
I22
sg70
(lp7633
sba(iHistoryObjects
State
p7634
(dp7635
g5
(lp7636
sg7
(lp7637
(iHistoryObjects
Message
p7638
(dp7639
g78
S'n004'
p7640
sg80
S'n003'
p7641
sg81
(lp7642
S'n005'
p7643
aS'n004n002n005'
p7644
asg83
I1
sg84
S'defender.advert'
p7645
sg86
S'2013-09-24 18:10:01.944'
p7646
sg88
I22
sbasg9
g10
((lp7647
(lp7648
S'defender.best_cost'
p7649
a(lp7650
(lp7651
S'n005'
p7652
aS'12'
p7653
aaaa(lp7654
S'defender.best_local_pref'
p7655
a(lp7656
(lp7657
S'n005'
p7658
aS'20'
p7659
aaaa(lp7660
S'defender.best_next_hop'
p7661
a(lp7662
(lp7663
S'n005'
p7664
aS'n004'
p7665
aaaa(lp7666
S'defender.policy'
p7667
a(lp7668
(lp7669
S'n004n002n005'
p7670
aS'20'
p7671
aa(lp7672
S'n005'
p7673
aS'10'
p7674
aaaa(lp7675
S'defender.rib_in'
p7676
a(lp7677
(lp7678
S'n005'
p7679
aS'n005'
p7680
aS'n005'
p7681
aa(lp7682
S'n005'
p7683
aS'n004'
p7684
aS'n004n002n005'
p7685
aaaa(lp7686
S'defender.rib_in_changed'
p7687
a(lp7688
(lp7689
S'n005'
p7690
aS'n004'
p7691
aaaa(lp7692
S'defender.rib_selected'
p7693
a(lp7694
(lp7695
S'n005'
p7696
aS'n004'
p7697
aS'n004n002n005'
p7698
aaaa(lp7699
S'neighbour'
p7700
a(lp7701
(lp7702
S'n001'
p7703
aa(lp7704
S'n004'
p7705
aa(lp7706
S'n005'
p7707
aaaa(lp7708
g5985
a(lp7709
aa(lp7710
g5988
a(lp7711
aa(lp7712
g6052
a(lp7713
aa(lp7714
g5991
a(lp7715
aa(lp7716
g6015
a(lp7717
aatp7718
Rp7719
sg68
g5959
sg69
I23
sg70
(lp7720
(iHistoryObjects
Message
p7721
(dp7722
g78
S'n003'
p7723
sg80
S'n001'
p7724
sg81
(lp7725
S'n005'
p7726
aS'n003n004n002n005'
p7727
asg83
I0
sg84
S'defender.advert'
p7728
sg86
S'2013-09-24 18:10:04.014'
p7729
sg88
I89
sba(iHistoryObjects
Message
p7730
(dp7731
g78
S'n003'
p7732
sg80
S'n004'
p7733
sg81
(lp7734
S'n005'
p7735
asg83
I0
sg84
S'defender.withdraw'
p7736
sg86
S'2013-09-24 18:10:04.025'
p7737
sg88
I90
sba(iHistoryObjects
Message
p7738
(dp7739
g78
S'n003'
p7740
sg80
S'n005'
p7741
sg81
(lp7742
S'n005'
p7743
asg83
I1
sg84
S'defender.withdraw'
p7744
sg86
S'2013-09-24 18:10:04.025'
p7745
sg69
I23
sg88
I91
sbasba(iHistoryObjects
State
p7746
(dp7747
g5
(lp7748
sg7
(lp7749
(iHistoryObjects
Message
p7750
(dp7751
g78
S'n001'
p7752
sg80
S'n003'
p7753
sg81
(lp7754
S'n005'
p7755
asg83
I1
sg84
S'defender.withdraw'
p7756
sg86
S'2013-09-24 18:10:04.335'
p7757
sg88
I121
sbasg9
g10
((lp7758
(lp7759
S'defender.best_cost'
p7760
a(lp7761
(lp7762
S'n005'
p7763
aS'12'
p7764
aaaa(lp7765
S'defender.best_local_pref'
p7766
a(lp7767
(lp7768
S'n005'
p7769
aS'20'
p7770
aaaa(lp7771
S'defender.best_next_hop'
p7772
a(lp7773
(lp7774
S'n005'
p7775
aS'n004'
p7776
aaaa(lp7777
S'defender.policy'
p7778
a(lp7779
(lp7780
S'n004n002n005'
p7781
aS'20'
p7782
aa(lp7783
S'n005'
p7784
aS'10'
p7785
aaaa(lp7786
S'defender.rib_in'
p7787
a(lp7788
(lp7789
S'n005'
p7790
aS'n004'
p7791
aS'n004n002n005'
p7792
aa(lp7793
S'n005'
p7794
aS'n005'
p7795
aS'n005'
p7796
aaaa(lp7797
S'defender.rib_in_changed'
p7798
a(lp7799
(lp7800
S'n005'
p7801
aS'n001'
p7802
aaaa(lp7803
S'defender.rib_selected'
p7804
a(lp7805
(lp7806
S'n005'
p7807
aS'n004'
p7808
aS'n004n002n005'
p7809
aaaa(lp7810
S'neighbour'
p7811
a(lp7812
(lp7813
S'n001'
p7814
aa(lp7815
S'n004'
p7816
aa(lp7817
S'n005'
p7818
aaaa(lp7819
g5985
a(lp7820
aa(lp7821
g5988
a(lp7822
aa(lp7823
g6052
a(lp7824
aa(lp7825
g5991
a(lp7826
aa(lp7827
g6015
a(lp7828
aatp7829
Rp7830
sg68
g5959
sg69
I25
sg70
(lp7831
sba(iHistoryObjects
State
p7832
(dp7833
g5
(lp7834
sg7
(lp7835
(iHistoryObjects
Message
p7836
(dp7837
g78
S'n004'
p7838
sg80
S'n003'
p7839
sg81
(lp7840
S'n005'
p7841
asg83
I1
sg84
S'defender.withdraw'
p7842
sg86
S'2013-09-24 18:10:07.445'
p7843
sg88
I25
sbasg9
g10
((lp7844
(lp7845
S'defender.best_cost'
p7846
a(lp7847
(lp7848
S'n005'
p7849
ag245
aaaa(lp7850
S'defender.best_local_pref'
p7851
a(lp7852
(lp7853
S'n005'
p7854
aS'10'
p7855
aaaa(lp7856
S'defender.best_next_hop'
p7857
a(lp7858
(lp7859
S'n005'
p7860
aS'n005'
p7861
aaaa(lp7862
S'defender.policy'
p7863
a(lp7864
(lp7865
S'n004n002n005'
p7866
aS'20'
p7867
aa(lp7868
S'n005'
p7869
aS'10'
p7870
aaaa(lp7871
S'defender.rib_in'
p7872
a(lp7873
(lp7874
S'n005'
p7875
aS'n005'
p7876
aS'n005'
p7877
aaaa(lp7878
S'defender.rib_in_changed'
p7879
a(lp7880
(lp7881
S'n005'
p7882
aS'n004'
p7883
aaaa(lp7884
S'defender.rib_selected'
p7885
a(lp7886
(lp7887
S'n005'
p7888
aS'n005'
p7889
aS'n005'
p7890
aaaa(lp7891
S'neighbour'
p7892
a(lp7893
(lp7894
S'n001'
p7895
aa(lp7896
S'n004'
p7897
aa(lp7898
S'n005'
p7899
aaaa(lp7900
g5985
a(lp7901
aa(lp7902
g5988
a(lp7903
aa(lp7904
g6052
a(lp7905
aa(lp7906
g5991
a(lp7907
aa(lp7908
g6015
a(lp7909
aatp7910
Rp7911
sg68
g5959
sg69
I26
sg70
(lp7912
(iHistoryObjects
Message
p7913
(dp7914
g78
S'n003'
p7915
sg80
S'n001'
p7916
sg81
(lp7917
S'n005'
p7918
aS'n003n005'
p7919
asg83
I0
sg84
S'defender.advert'
p7920
sg86
S'2013-09-24 18:10:08.316'
p7921
sg88
I92
sba(iHistoryObjects
Message
p7922
(dp7923
g78
S'n003'
p7924
sg80
S'n004'
p7925
sg81
(lp7926
S'n005'
p7927
aS'n003n005'
p7928
asg83
I0
sg84
S'defender.advert'
p7929
sg86
S'2013-09-24 18:10:08.316'
p7930
sg88
I93
sba(iHistoryObjects
Message
p7931
(dp7932
g78
S'n003'
p7933
sg80
S'n005'
p7934
sg81
(lp7935
S'n005'
p7936
asg83
I1
sg84
S'defender.withdraw'
p7937
sg86
S'2013-09-24 18:10:08.326'
p7938
sg69
I26
sg88
I94
sbasba(iHistoryObjects
State
p7939
(dp7940
g5
(lp7941
sg7
(lp7942
(iHistoryObjects
Message
p7943
(dp7944
g78
S'n001'
p7945
sg80
S'n003'
p7946
sg81
(lp7947
S'n005'
p7948
aS'n001n005'
p7949
asg83
I1
sg84
S'defender.advert'
p7950
sg86
S'2013-09-24 18:10:10.055'
p7951
sg88
I123
sbasg9
g10
((lp7952
(lp7953
S'defender.best_cost'
p7954
a(lp7955
(lp7956
S'n005'
p7957
ag245
aaaa(lp7958
S'defender.best_local_pref'
p7959
a(lp7960
(lp7961
S'n005'
p7962
aS'10'
p7963
aaaa(lp7964
S'defender.best_next_hop'
p7965
a(lp7966
(lp7967
S'n005'
p7968
aS'n005'
p7969
aaaa(lp7970
S'defender.policy'
p7971
a(lp7972
(lp7973
S'n004n002n005'
p7974
aS'20'
p7975
aa(lp7976
S'n005'
p7977
aS'10'
p7978
aaaa(lp7979
S'defender.rib_in'
p7980
a(lp7981
(lp7982
S'n005'
p7983
aS'n005'
p7984
aS'n005'
p7985
aaaa(lp7986
S'defender.rib_in_changed'
p7987
a(lp7988
(lp7989
S'n005'
p7990
aS'n001'
p7991
aaaa(lp7992
S'defender.rib_selected'
p7993
a(lp7994
(lp7995
S'n005'
p7996
aS'n005'
p7997
aS'n005'
p7998
aaaa(lp7999
S'neighbour'
p8000
a(lp8001
(lp8002
S'n001'
p8003
aa(lp8004
S'n004'
p8005
aa(lp8006
S'n005'
p8007
aaaa(lp8008
g5985
a(lp8009
aa(lp8010
g5988
a(lp8011
aa(lp8012
g6052
a(lp8013
aa(lp8014
g5991
a(lp8015
aa(lp8016
g6015
a(lp8017
aatp8018
Rp8019
sg68
g5959
sg69
I28
sg70
(lp8020
sba(iHistoryObjects
State
p8021
(dp8022
g5
(lp8023
sg7
(lp8024
(iHistoryObjects
Message
p8025
(dp8026
g78
S'n004'
p8027
sg80
S'n003'
p8028
sg81
(lp8029
S'n005'
p8030
asg83
I1
sg84
S'defender.withdraw'
p8031
sg86
S'2013-09-24 18:10:10.191'
p8032
sg88
I27
sbasg9
g10
((lp8033
(lp8034
S'defender.best_cost'
p8035
a(lp8036
(lp8037
S'n005'
p8038
ag245
aaaa(lp8039
S'defender.best_local_pref'
p8040
a(lp8041
(lp8042
S'n005'
p8043
aS'10'
p8044
aaaa(lp8045
S'defender.best_next_hop'
p8046
a(lp8047
(lp8048
S'n005'
p8049
aS'n005'
p8050
aaaa(lp8051
S'defender.policy'
p8052
a(lp8053
(lp8054
S'n004n002n005'
p8055
aS'20'
p8056
aa(lp8057
S'n005'
p8058
aS'10'
p8059
aaaa(lp8060
S'defender.rib_in'
p8061
a(lp8062
(lp8063
S'n005'
p8064
aS'n005'
p8065
aS'n005'
p8066
aaaa(lp8067
S'defender.rib_in_changed'
p8068
a(lp8069
(lp8070
S'n005'
p8071
aS'n004'
p8072
aaaa(lp8073
S'defender.rib_selected'
p8074
a(lp8075
(lp8076
S'n005'
p8077
aS'n005'
p8078
aS'n005'
p8079
aaaa(lp8080
S'neighbour'
p8081
a(lp8082
(lp8083
S'n001'
p8084
aa(lp8085
S'n004'
p8086
aa(lp8087
S'n005'
p8088
aaaa(lp8089
g5985
a(lp8090
aa(lp8091
g5988
a(lp8092
aa(lp8093
g6052
a(lp8094
aa(lp8095
g5991
a(lp8096
aa(lp8097
g6015
a(lp8098
aatp8099
Rp8100
sg68
g5959
sg69
I29
sg70
(lp8101
sba(iHistoryObjects
State
p8102
(dp8103
g5
(lp8104
sg7
(lp8105
(iHistoryObjects
Message
p8106
(dp8107
g78
S'n004'
p8108
sg80
S'n003'
p8109
sg81
(lp8110
S'n005'
p8111
aS'n004n002n005'
p8112
asg83
I1
sg84
S'defender.advert'
p8113
sg86
S'2013-09-24 18:10:12.942'
p8114
sg88
I28
sbasg9
g10
((lp8115
(lp8116
S'defender.best_cost'
p8117
a(lp8118
(lp8119
S'n005'
p8120
aS'12'
p8121
aaaa(lp8122
S'defender.best_local_pref'
p8123
a(lp8124
(lp8125
S'n005'
p8126
aS'20'
p8127
aaaa(lp8128
S'defender.best_next_hop'
p8129
a(lp8130
(lp8131
S'n005'
p8132
aS'n004'
p8133
aaaa(lp8134
S'defender.policy'
p8135
a(lp8136
(lp8137
S'n004n002n005'
p8138
aS'20'
p8139
aa(lp8140
S'n005'
p8141
aS'10'
p8142
aaaa(lp8143
S'defender.rib_in'
p8144
a(lp8145
(lp8146
S'n005'
p8147
aS'n005'
p8148
aS'n005'
p8149
aa(lp8150
S'n005'
p8151
aS'n004'
p8152
aS'n004n002n005'
p8153
aaaa(lp8154
S'defender.rib_in_changed'
p8155
a(lp8156
(lp8157
S'n005'
p8158
aS'n004'
p8159
aaaa(lp8160
S'defender.rib_selected'
p8161
a(lp8162
(lp8163
S'n005'
p8164
aS'n004'
p8165
aS'n004n002n005'
p8166
aaaa(lp8167
S'neighbour'
p8168
a(lp8169
(lp8170
S'n001'
p8171
aa(lp8172
S'n004'
p8173
aa(lp8174
S'n005'
p8175
aaaa(lp8176
g5985
a(lp8177
aa(lp8178
g5988
a(lp8179
aa(lp8180
g6052
a(lp8181
aa(lp8182
g5991
a(lp8183
aa(lp8184
g6015
a(lp8185
aatp8186
Rp8187
sg68
g5959
sg69
I30
sg70
(lp8188
(iHistoryObjects
Message
p8189
(dp8190
g78
S'n003'
p8191
sg80
S'n001'
p8192
sg81
(lp8193
S'n005'
p8194
aS'n003n004n002n005'
p8195
asg83
I0
sg84
S'defender.advert'
p8196
sg86
S'2013-09-24 18:10:15.218'
p8197
sg88
I95
sba(iHistoryObjects
Message
p8198
(dp8199
g78
S'n003'
p8200
sg80
S'n004'
p8201
sg81
(lp8202
S'n005'
p8203
asg83
I0
sg84
S'defender.withdraw'
p8204
sg86
S'2013-09-24 18:10:15.227'
p8205
sg88
I96
sba(iHistoryObjects
Message
p8206
(dp8207
g78
S'n003'
p8208
sg80
S'n005'
p8209
sg81
(lp8210
S'n005'
p8211
asg83
I1
sg84
S'defender.withdraw'
p8212
sg86
S'2013-09-24 18:10:15.227'
p8213
sg69
I30
sg88
I97
sbasba(iHistoryObjects
State
p8214
(dp8215
g5
(lp8216
sg7
(lp8217
(iHistoryObjects
Message
p8218
(dp8219
g78
S'n001'
p8220
sg80
S'n003'
p8221
sg81
(lp8222
S'n005'
p8223
asg83
I1
sg84
S'defender.withdraw'
p8224
sg86
S'2013-09-24 18:10:15.723'
p8225
sg88
I127
sbasg9
g10
((lp8226
(lp8227
S'defender.best_cost'
p8228
a(lp8229
(lp8230
S'n005'
p8231
aS'12'
p8232
aaaa(lp8233
S'defender.best_local_pref'
p8234
a(lp8235
(lp8236
S'n005'
p8237
aS'20'
p8238
aaaa(lp8239
S'defender.best_next_hop'
p8240
a(lp8241
(lp8242
S'n005'
p8243
aS'n004'
p8244
aaaa(lp8245
S'defender.policy'
p8246
a(lp8247
(lp8248
S'n004n002n005'
p8249
aS'20'
p8250
aa(lp8251
S'n005'
p8252
aS'10'
p8253
aaaa(lp8254
S'defender.rib_in'
p8255
a(lp8256
(lp8257
S'n005'
p8258
aS'n004'
p8259
aS'n004n002n005'
p8260
aa(lp8261
S'n005'
p8262
aS'n005'
p8263
aS'n005'
p8264
aaaa(lp8265
S'defender.rib_in_changed'
p8266
a(lp8267
(lp8268
S'n005'
p8269
aS'n001'
p8270
aaaa(lp8271
S'defender.rib_selected'
p8272
a(lp8273
(lp8274
S'n005'
p8275
aS'n004'
p8276
aS'n004n002n005'
p8277
aaaa(lp8278
S'neighbour'
p8279
a(lp8280
(lp8281
S'n001'
p8282
aa(lp8283
S'n004'
p8284
aa(lp8285
S'n005'
p8286
aaaa(lp8287
g5985
a(lp8288
aa(lp8289
g5988
a(lp8290
aa(lp8291
g6052
a(lp8292
aa(lp8293
g5991
a(lp8294
aa(lp8295
g6015
a(lp8296
aatp8297
Rp8298
sg68
g5959
sg69
I32
sg70
(lp8299
sba(iHistoryObjects
State
p8300
(dp8301
g5
(lp8302
sg7
(lp8303
(iHistoryObjects
Message
p8304
(dp8305
g78
S'n004'
p8306
sg80
S'n003'
p8307
sg81
(lp8308
S'n005'
p8309
asg83
I1
sg84
S'defender.withdraw'
p8310
sg86
S'2013-09-24 18:10:18.633'
p8311
sg88
I31
sbasg9
g10
((lp8312
(lp8313
S'defender.best_cost'
p8314
a(lp8315
(lp8316
S'n005'
p8317
ag245
aaaa(lp8318
S'defender.best_local_pref'
p8319
a(lp8320
(lp8321
S'n005'
p8322
aS'10'
p8323
aaaa(lp8324
S'defender.best_next_hop'
p8325
a(lp8326
(lp8327
S'n005'
p8328
aS'n005'
p8329
aaaa(lp8330
S'defender.policy'
p8331
a(lp8332
(lp8333
S'n004n002n005'
p8334
aS'20'
p8335
aa(lp8336
S'n005'
p8337
aS'10'
p8338
aaaa(lp8339
S'defender.rib_in'
p8340
a(lp8341
(lp8342
S'n005'
p8343
aS'n005'
p8344
aS'n005'
p8345
aaaa(lp8346
S'defender.rib_in_changed'
p8347
a(lp8348
(lp8349
S'n005'
p8350
aS'n004'
p8351
aaaa(lp8352
S'defender.rib_selected'
p8353
a(lp8354
(lp8355
S'n005'
p8356
aS'n005'
p8357
aS'n005'
p8358
aaaa(lp8359
S'neighbour'
p8360
a(lp8361
(lp8362
S'n001'
p8363
aa(lp8364
S'n004'
p8365
aa(lp8366
S'n005'
p8367
aaaa(lp8368
g5985
a(lp8369
aa(lp8370
g5988
a(lp8371
aa(lp8372
g6052
a(lp8373
aa(lp8374
g5991
a(lp8375
aa(lp8376
g6015
a(lp8377
aatp8378
Rp8379
sg68
g5959
sg69
I33
sg70
(lp8380
(iHistoryObjects
Message
p8381
(dp8382
g78
S'n003'
p8383
sg80
S'n001'
p8384
sg81
(lp8385
S'n005'
p8386
aS'n003n005'
p8387
asg83
I0
sg84
S'defender.advert'
p8388
sg86
S'2013-09-24 18:10:19.396'
p8389
sg88
I98
sba(iHistoryObjects
Message
p8390
(dp8391
g78
S'n003'
p8392
sg80
S'n004'
p8393
sg81
(lp8394
S'n005'
p8395
aS'n003n005'
p8396
asg83
I1
sg84
S'defender.advert'
p8397
sg86
S'2013-09-24 18:10:19.396'
p8398
sg69
I33
sg88
I99
sba(iHistoryObjects
Message
p8399
(dp8400
g78
S'n003'
p8401
sg80
S'n005'
p8402
sg81
(lp8403
S'n005'
p8404
asg83
I1
sg84
S'defender.withdraw'
p8405
sg86
S'2013-09-24 18:10:19.404'
p8406
sg69
I33
sg88
I100
sbasba(iHistoryObjects
State
p8407
(dp8408
g5
(lp8409
sg7
(lp8410
(iHistoryObjects
Message
p8411
(dp8412
g78
S'n001'
p8413
sg80
S'n003'
p8414
sg81
(lp8415
S'n005'
p8416
aS'n001n005'
p8417
asg83
I1
sg84
S'defender.advert'
p8418
sg86
S'2013-09-24 18:10:21.435'
p8419
sg88
I129
sbasg9
g10
((lp8420
(lp8421
S'defender.best_cost'
p8422
a(lp8423
(lp8424
S'n005'
p8425
ag245
aaaa(lp8426
S'defender.best_local_pref'
p8427
a(lp8428
(lp8429
S'n005'
p8430
aS'10'
p8431
aaaa(lp8432
S'defender.best_next_hop'
p8433
a(lp8434
(lp8435
S'n005'
p8436
aS'n005'
p8437
aaaa(lp8438
S'defender.policy'
p8439
a(lp8440
(lp8441
S'n004n002n005'
p8442
aS'20'
p8443
aa(lp8444
S'n005'
p8445
aS'10'
p8446
aaaa(lp8447
S'defender.rib_in'
p8448
a(lp8449
(lp8450
S'n005'
p8451
aS'n005'
p8452
aS'n005'
p8453
aaaa(lp8454
S'defender.rib_in_changed'
p8455
a(lp8456
(lp8457
S'n005'
p8458
aS'n001'
p8459
aaaa(lp8460
S'defender.rib_selected'
p8461
a(lp8462
(lp8463
S'n005'
p8464
aS'n005'
p8465
aS'n005'
p8466
aaaa(lp8467
S'neighbour'
p8468
a(lp8469
(lp8470
S'n001'
p8471
aa(lp8472
S'n004'
p8473
aa(lp8474
S'n005'
p8475
aaaa(lp8476
g5985
a(lp8477
aa(lp8478
g5988
a(lp8479
aa(lp8480
g6052
a(lp8481
aa(lp8482
g5991
a(lp8483
aa(lp8484
g6015
a(lp8485
aatp8486
Rp8487
sg68
g5959
sg69
I35
sg70
(lp8488
sbasS'n001'
p8489
(lp8490
(iHistoryObjects
State
p8491
(dp8492
g5
(lp8493
sg7
(lp8494
sg9
g10
((lp8495
(lp8496
S'defender.cadd_policy'
p8497
a(lp8498
(lp8499
S'n003n004n002n005'
p8500
aS'20'
p8501
aa(lp8502
S'n005'
p8503
aS'10'
p8504
aaaa(lp8505
S'neighbour'
p8506
a(lp8507
(lp8508
S'n002'
p8509
aa(lp8510
S'n003'
p8511
aa(lp8512
S'n005'
p8513
aaaa(lp8514
S'defender.cdel_neighbour'
p8515
a(lp8516
aa(lp8517
S'defender.cadd_neighbour'
p8518
a(lp8519
aa(lp8520
S'defender.cdel_policy'
p8521
a(lp8522
aa(lp8523
S'defender.policy'
p8524
a(lp8525
aa(lp8526
S'defender.rib_in_changed'
p8527
a(lp8528
aa(lp8529
S'defender.rib_in'
p8530
a(lp8531
aa(lp8532
S'defender.best_local_pref'
p8533
a(lp8534
aa(lp8535
S'defender.best_cost'
p8536
a(lp8537
aa(lp8538
S'defender.best_next_hop'
p8539
a(lp8540
aa(lp8541
S'defender.rib_selected'
p8542
a(lp8543
aa(lp8544
S'defender.deleted'
p8545
a(lp8546
aatp8547
Rp8548
sg68
g8489
sg69
I0
sg70
(lp8549
sba(iHistoryObjects
State
p8550
(dp8551
g5
(lp8552
sg7
(lp8553
(iHistoryObjects
Message
p8554
(dp8555
g78
g79
sg80
g8489
sg81
(lp8556
sg83
I1
sg84
S'defender.start'
p8557
sg86
g87
sg88
I-1
sbasg9
g10
((lp8558
(lp8559
S'defender.policy'
p8560
a(lp8561
(lp8562
S'n003n004n002n005'
p8563
aS'20'
p8564
aa(lp8565
S'n005'
p8566
aS'10'
p8567
aaaa(lp8568
S'neighbour'
p8569
a(lp8570
(lp8571
S'n002'
p8572
aa(lp8573
S'n003'
p8574
aa(lp8575
S'n005'
p8576
aaaa(lp8577
g8515
a(lp8578
aa(lp8579
g8518
a(lp8580
aa(lp8581
S'defender.cadd_policy'
p8582
a(lp8583
aa(lp8584
g8521
a(lp8585
aa(lp8586
g8527
a(lp8587
aa(lp8588
g8530
a(lp8589
aa(lp8590
g8533
a(lp8591
aa(lp8592
g8536
a(lp8593
aa(lp8594
g8539
a(lp8595
aa(lp8596
g8542
a(lp8597
aa(lp8598
g8545
a(lp8599
aatp8600
Rp8601
sg68
g8489
sg69
I1
sg70
(lp8602
(iHistoryObjects
Message
p8603
(dp8604
g78
S'n001'
p8605
sg80
S'n002'
p8606
sg81
(lp8607
S'n001'
p8608
aS'n001'
p8609
asg83
I0
sg84
S'defender.advert'
p8610
sg86
S'2013-09-24 18:09:20.029'
p8611
sg88
I101
sba(iHistoryObjects
Message
p8612
(dp8613
g78
S'n001'
p8614
sg80
S'n005'
p8615
sg81
(lp8616
S'n001'
p8617
aS'n001'
p8618
asg83
I0
sg84
S'defender.advert'
p8619
sg86
S'2013-09-24 18:09:20.029'
p8620
sg88
I102
sba(iHistoryObjects
Message
p8621
(dp8622
g78
S'n001'
p8623
sg80
S'n003'
p8624
sg81
(lp8625
S'n001'
p8626
aS'n001'
p8627
asg83
I0
sg84
S'defender.advert'
p8628
sg86
S'2013-09-24 18:09:20.029'
p8629
sg88
I103
sbasba(iHistoryObjects
State
p8630
(dp8631
g5
(lp8632
sg7
(lp8633
(iHistoryObjects
Message
p8634
(dp8635
g78
S'n002'
p8636
sg80
S'n001'
p8637
sg81
(lp8638
S'n002'
p8639
aS'n002'
p8640
asg83
I1
sg84
S'defender.advert'
p8641
sg86
S'2013-09-24 18:09:19.968'
p8642
sg88
I38
sbasg9
g10
((lp8643
(lp8644
S'defender.policy'
p8645
a(lp8646
(lp8647
S'n003n004n002n005'
p8648
aS'20'
p8649
aa(lp8650
S'n005'
p8651
aS'10'
p8652
aaaa(lp8653
S'defender.rib_in_changed'
p8654
a(lp8655
(lp8656
S'n002'
p8657
aS'n002'
p8658
aaaa(lp8659
S'neighbour'
p8660
a(lp8661
(lp8662
S'n002'
p8663
aa(lp8664
S'n003'
p8665
aa(lp8666
S'n005'
p8667
aaaa(lp8668
g8515
a(lp8669
aa(lp8670
g8518
a(lp8671
aa(lp8672
g8582
a(lp8673
aa(lp8674
g8521
a(lp8675
aa(lp8676
g8530
a(lp8677
aa(lp8678
g8533
a(lp8679
aa(lp8680
g8536
a(lp8681
aa(lp8682
g8539
a(lp8683
aa(lp8684
g8542
a(lp8685
aa(lp8686
g8545
a(lp8687
aatp8688
Rp8689
sg68
g8489
sg69
I2
sg70
(lp8690
sba(iHistoryObjects
State
p8691
(dp8692
g5
(lp8693
sg7
(lp8694
(iHistoryObjects
Message
p8695
(dp8696
g78
S'n005'
p8697
sg80
S'n001'
p8698
sg81
(lp8699
S'n005'
p8700
aS'n005'
p8701
asg83
I1
sg84
S'defender.advert'
p8702
sg86
S'2013-09-24 18:09:20.031'
p8703
sg88
I34
sbasg9
g10
((lp8704
(lp8705
S'defender.best_cost'
p8706
a(lp8707
(lp8708
S'n005'
p8709
ag245
aaaa(lp8710
S'defender.best_local_pref'
p8711
a(lp8712
(lp8713
S'n005'
p8714
aS'10'
p8715
aaaa(lp8716
S'defender.best_next_hop'
p8717
a(lp8718
(lp8719
S'n005'
p8720
aS'n005'
p8721
aaaa(lp8722
S'defender.policy'
p8723
a(lp8724
(lp8725
S'n003n004n002n005'
p8726
aS'20'
p8727
aa(lp8728
S'n005'
p8729
aS'10'
p8730
aaaa(lp8731
S'defender.rib_in'
p8732
a(lp8733
(lp8734
S'n005'
p8735
aS'n005'
p8736
aS'n005'
p8737
aaaa(lp8738
S'defender.rib_in_changed'
p8739
a(lp8740
(lp8741
S'n005'
p8742
aS'n005'
p8743
aaaa(lp8744
S'defender.rib_selected'
p8745
a(lp8746
(lp8747
S'n005'
p8748
aS'n005'
p8749
aS'n005'
p8750
aaaa(lp8751
S'neighbour'
p8752
a(lp8753
(lp8754
S'n002'
p8755
aa(lp8756
S'n003'
p8757
aa(lp8758
S'n005'
p8759
aaaa(lp8760
g8515
a(lp8761
aa(lp8762
g8518
a(lp8763
aa(lp8764
g8582
a(lp8765
aa(lp8766
g8521
a(lp8767
aa(lp8768
g8545
a(lp8769
aatp8770
Rp8771
sg68
g8489
sg69
I3
sg70
(lp8772
(iHistoryObjects
Message
p8773
(dp8774
g78
S'n001'
p8775
sg80
S'n002'
p8776
sg81
(lp8777
S'n005'
p8778
aS'n001n005'
p8779
asg83
I0
sg84
S'defender.advert'
p8780
sg86
S'2013-09-24 18:09:24.087'
p8781
sg88
I104
sba(iHistoryObjects
Message
p8782
(dp8783
g78
S'n001'
p8784
sg80
S'n003'
p8785
sg81
(lp8786
S'n005'
p8787
aS'n001n005'
p8788
asg83
I0
sg84
S'defender.advert'
p8789
sg86
S'2013-09-24 18:09:24.087'
p8790
sg88
I105
sba(iHistoryObjects
Message
p8791
(dp8792
g78
S'n001'
p8793
sg80
S'n005'
p8794
sg81
(lp8795
S'n005'
p8796
asg83
I0
sg84
S'defender.withdraw'
p8797
sg86
S'2013-09-24 18:09:24.115'
p8798
sg88
I106
sbasba(iHistoryObjects
State
p8799
(dp8800
g5
(lp8801
sg7
(lp8802
(iHistoryObjects
Message
p8803
(dp8804
g78
S'n003'
p8805
sg80
S'n001'
p8806
sg81
(lp8807
S'n003'
p8808
aS'n003'
p8809
asg83
I1
sg84
S'defender.advert'
p8810
sg86
S'2013-09-24 18:09:20.128'
p8811
sg88
I71
sbasg9
g10
((lp8812
(lp8813
S'defender.best_cost'
p8814
a(lp8815
(lp8816
S'n005'
p8817
ag245
aaaa(lp8818
S'defender.best_local_pref'
p8819
a(lp8820
(lp8821
S'n005'
p8822
aS'10'
p8823
aaaa(lp8824
S'defender.best_next_hop'
p8825
a(lp8826
(lp8827
S'n005'
p8828
aS'n005'
p8829
aaaa(lp8830
S'defender.policy'
p8831
a(lp8832
(lp8833
S'n003n004n002n005'
p8834
aS'20'
p8835
aa(lp8836
S'n005'
p8837
aS'10'
p8838
aaaa(lp8839
S'defender.rib_in'
p8840
a(lp8841
(lp8842
S'n005'
p8843
aS'n005'
p8844
aS'n005'
p8845
aaaa(lp8846
S'defender.rib_in_changed'
p8847
a(lp8848
(lp8849
S'n003'
p8850
aS'n003'
p8851
aaaa(lp8852
S'defender.rib_selected'
p8853
a(lp8854
(lp8855
S'n005'
p8856
aS'n005'
p8857
aS'n005'
p8858
aaaa(lp8859
S'neighbour'
p8860
a(lp8861
(lp8862
S'n002'
p8863
aa(lp8864
S'n003'
p8865
aa(lp8866
S'n005'
p8867
aaaa(lp8868
g8515
a(lp8869
aa(lp8870
g8518
a(lp8871
aa(lp8872
g8582
a(lp8873
aa(lp8874
g8521
a(lp8875
aa(lp8876
g8545
a(lp8877
aatp8878
Rp8879
sg68
g8489
sg69
I4
sg70
(lp8880
sba(iHistoryObjects
State
p8881
(dp8882
g5
(lp8883
sg7
(lp8884
(iHistoryObjects
Message
p8885
(dp8886
g78
S'n003'
p8887
sg80
S'n001'
p8888
sg81
(lp8889
S'n005'
p8890
aS'n003n005'
p8891
asg83
I1
sg84
S'defender.advert'
p8892
sg86
S'2013-09-24 18:09:22.231'
p8893
sg88
I74
sbasg9
g10
((lp8894
(lp8895
S'defender.best_cost'
p8896
a(lp8897
(lp8898
S'n005'
p8899
ag245
aaaa(lp8900
S'defender.best_local_pref'
p8901
a(lp8902
(lp8903
S'n005'
p8904
aS'10'
p8905
aaaa(lp8906
S'defender.best_next_hop'
p8907
a(lp8908
(lp8909
S'n005'
p8910
aS'n005'
p8911
aaaa(lp8912
S'defender.policy'
p8913
a(lp8914
(lp8915
S'n003n004n002n005'
p8916
aS'20'
p8917
aa(lp8918
S'n005'
p8919
aS'10'
p8920
aaaa(lp8921
S'defender.rib_in'
p8922
a(lp8923
(lp8924
S'n005'
p8925
aS'n005'
p8926
aS'n005'
p8927
aaaa(lp8928
S'defender.rib_in_changed'
p8929
a(lp8930
(lp8931
S'n005'
p8932
aS'n003'
p8933
aaaa(lp8934
S'defender.rib_selected'
p8935
a(lp8936
(lp8937
S'n005'
p8938
aS'n005'
p8939
aS'n005'
p8940
aaaa(lp8941
S'neighbour'
p8942
a(lp8943
(lp8944
S'n002'
p8945
aa(lp8946
S'n003'
p8947
aa(lp8948
S'n005'
p8949
aaaa(lp8950
g8515
a(lp8951
aa(lp8952
g8518
a(lp8953
aa(lp8954
g8582
a(lp8955
aa(lp8956
g8521
a(lp8957
aa(lp8958
g8545
a(lp8959
aatp8960
Rp8961
sg68
g8489
sg69
I5
sg70
(lp8962
sba(iHistoryObjects
State
p8963
(dp8964
g5
(lp8965
sg7
(lp8966
(iHistoryObjects
Message
p8967
(dp8968
g78
S'n002'
p8969
sg80
S'n001'
p8970
sg81
(lp8971
S'n005'
p8972
aS'n002n005'
p8973
asg83
I1
sg84
S'defender.advert'
p8974
sg86
S'2013-09-24 18:09:22.254'
p8975
sg88
I41
sbasg9
g10
((lp8976
(lp8977
S'defender.best_cost'
p8978
a(lp8979
(lp8980
S'n005'
p8981
ag245
aaaa(lp8982
S'defender.best_local_pref'
p8983
a(lp8984
(lp8985
S'n005'
p8986
aS'10'
p8987
aaaa(lp8988
S'defender.best_next_hop'
p8989
a(lp8990
(lp8991
S'n005'
p8992
aS'n005'
p8993
aaaa(lp8994
S'defender.policy'
p8995
a(lp8996
(lp8997
S'n003n004n002n005'
p8998
aS'20'
p8999
aa(lp9000
S'n005'
p9001
aS'10'
p9002
aaaa(lp9003
S'defender.rib_in'
p9004
a(lp9005
(lp9006
S'n005'
p9007
aS'n005'
p9008
aS'n005'
p9009
aaaa(lp9010
S'defender.rib_in_changed'
p9011
a(lp9012
(lp9013
S'n005'
p9014
aS'n002'
p9015
aaaa(lp9016
S'defender.rib_selected'
p9017
a(lp9018
(lp9019
S'n005'
p9020
aS'n005'
p9021
aS'n005'
p9022
aaaa(lp9023
S'neighbour'
p9024
a(lp9025
(lp9026
S'n002'
p9027
aa(lp9028
S'n003'
p9029
aa(lp9030
S'n005'
p9031
aaaa(lp9032
g8515
a(lp9033
aa(lp9034
g8518
a(lp9035
aa(lp9036
g8582
a(lp9037
aa(lp9038
g8521
a(lp9039
aa(lp9040
g8545
a(lp9041
aatp9042
Rp9043
sg68
g8489
sg69
I6
sg70
(lp9044
sba(iHistoryObjects
State
p9045
(dp9046
g5
(lp9047
sg7
(lp9048
(iHistoryObjects
Message
p9049
(dp9050
g78
S'n002'
p9051
sg80
S'n001'
p9052
sg81
(lp9053
S'n005'
p9054
asg83
I1
sg84
S'defender.withdraw'
p9055
sg86
S'2013-09-24 18:09:27.921'
p9056
sg88
I45
sbasg9
g10
((lp9057
(lp9058
S'defender.best_cost'
p9059
a(lp9060
(lp9061
S'n005'
p9062
ag245
aaaa(lp9063
S'defender.best_local_pref'
p9064
a(lp9065
(lp9066
S'n005'
p9067
aS'10'
p9068
aaaa(lp9069
S'defender.best_next_hop'
p9070
a(lp9071
(lp9072
S'n005'
p9073
aS'n005'
p9074
aaaa(lp9075
S'defender.policy'
p9076
a(lp9077
(lp9078
S'n003n004n002n005'
p9079
aS'20'
p9080
aa(lp9081
S'n005'
p9082
aS'10'
p9083
aaaa(lp9084
S'defender.rib_in'
p9085
a(lp9086
(lp9087
S'n005'
p9088
aS'n005'
p9089
aS'n005'
p9090
aaaa(lp9091
S'defender.rib_in_changed'
p9092
a(lp9093
(lp9094
S'n005'
p9095
aS'n002'
p9096
aaaa(lp9097
S'defender.rib_selected'
p9098
a(lp9099
(lp9100
S'n005'
p9101
aS'n005'
p9102
aS'n005'
p9103
aaaa(lp9104
S'neighbour'
p9105
a(lp9106
(lp9107
S'n002'
p9108
aa(lp9109
S'n003'
p9110
aa(lp9111
S'n005'
p9112
aaaa(lp9113
g8515
a(lp9114
aa(lp9115
g8518
a(lp9116
aa(lp9117
g8582
a(lp9118
aa(lp9119
g8521
a(lp9120
aa(lp9121
g8545
a(lp9122
aatp9123
Rp9124
sg68
g8489
sg69
I7
sg70
(lp9125
sba(iHistoryObjects
State
p9126
(dp9127
g5
(lp9128
sg7
(lp9129
(iHistoryObjects
Message
p9130
(dp9131
g78
S'n003'
p9132
sg80
S'n001'
p9133
sg81
(lp9134
S'n005'
p9135
aS'n003n004n002n005'
p9136
asg83
I1
sg84
S'defender.advert'
p9137
sg86
S'2013-09-24 18:09:39.346'
p9138
sg88
I77
sbasg9
g10
((lp9139
(lp9140
S'defender.best_cost'
p9141
a(lp9142
(lp9143
S'n005'
p9144
aS'16'
p9145
aaaa(lp9146
S'defender.best_local_pref'
p9147
a(lp9148
(lp9149
S'n005'
p9150
aS'20'
p9151
aaaa(lp9152
S'defender.best_next_hop'
p9153
a(lp9154
(lp9155
S'n005'
p9156
aS'n003'
p9157
aaaa(lp9158
S'defender.policy'
p9159
a(lp9160
(lp9161
S'n003n004n002n005'
p9162
aS'20'
p9163
aa(lp9164
S'n005'
p9165
aS'10'
p9166
aaaa(lp9167
S'defender.rib_in'
p9168
a(lp9169
(lp9170
S'n005'
p9171
aS'n005'
p9172
aS'n005'
p9173
aa(lp9174
S'n005'
p9175
aS'n003'
p9176
aS'n003n004n002n005'
p9177
aaaa(lp9178
S'defender.rib_in_changed'
p9179
a(lp9180
(lp9181
S'n005'
p9182
aS'n003'
p9183
aaaa(lp9184
S'defender.rib_selected'
p9185
a(lp9186
(lp9187
S'n005'
p9188
aS'n003'
p9189
aS'n003n004n002n005'
p9190
aaaa(lp9191
S'neighbour'
p9192
a(lp9193
(lp9194
S'n002'
p9195
aa(lp9196
S'n003'
p9197
aa(lp9198
S'n005'
p9199
aaaa(lp9200
g8515
a(lp9201
aa(lp9202
g8518
a(lp9203
aa(lp9204
g8582
a(lp9205
aa(lp9206
g8521
a(lp9207
aa(lp9208
g8545
a(lp9209
aatp9210
Rp9211
sg68
g8489
sg69
I10
sg70
(lp9212
(iHistoryObjects
Message
p9213
(dp9214
g78
S'n001'
p9215
sg80
S'n002'
p9216
sg81
(lp9217
S'n005'
p9218
asg83
I0
sg84
S'defender.withdraw'
p9219
sg86
S'2013-09-24 18:09:39.773'
p9220
sg88
I107
sba(iHistoryObjects
Message
p9221
(dp9222
g78
S'n001'
p9223
sg80
S'n005'
p9224
sg81
(lp9225
S'n005'
p9226
asg83
I0
sg84
S'defender.withdraw'
p9227
sg86
S'2013-09-24 18:09:39.773'
p9228
sg88
I108
sba(iHistoryObjects
Message
p9229
(dp9230
g78
S'n001'
p9231
sg80
S'n003'
p9232
sg81
(lp9233
S'n005'
p9234
asg83
I0
sg84
S'defender.withdraw'
p9235
sg86
S'2013-09-24 18:09:39.773'
p9236
sg88
I109
sbasba(iHistoryObjects
State
p9237
(dp9238
g5
(lp9239
sg7
(lp9240
(iHistoryObjects
Message
p9241
(dp9242
g78
S'n002'
p9243
sg80
S'n001'
p9244
sg81
(lp9245
S'n005'
p9246
aS'n002n005'
p9247
asg83
I1
sg84
S'defender.advert'
p9248
sg86
S'2013-09-24 18:09:42.561'
p9249
sg88
I47
sbasg9
g10
((lp9250
(lp9251
S'defender.best_cost'
p9252
a(lp9253
(lp9254
S'n005'
p9255
aS'16'
p9256
aaaa(lp9257
S'defender.best_local_pref'
p9258
a(lp9259
(lp9260
S'n005'
p9261
aS'20'
p9262
aaaa(lp9263
S'defender.best_next_hop'
p9264
a(lp9265
(lp9266
S'n005'
p9267
aS'n003'
p9268
aaaa(lp9269
S'defender.policy'
p9270
a(lp9271
(lp9272
S'n003n004n002n005'
p9273
aS'20'
p9274
aa(lp9275
S'n005'
p9276
aS'10'
p9277
aaaa(lp9278
S'defender.rib_in'
p9279
a(lp9280
(lp9281
S'n005'
p9282
aS'n005'
p9283
aS'n005'
p9284
aa(lp9285
S'n005'
p9286
aS'n003'
p9287
aS'n003n004n002n005'
p9288
aaaa(lp9289
S'defender.rib_in_changed'
p9290
a(lp9291
(lp9292
S'n005'
p9293
aS'n002'
p9294
aaaa(lp9295
S'defender.rib_selected'
p9296
a(lp9297
(lp9298
S'n005'
p9299
aS'n003'
p9300
aS'n003n004n002n005'
p9301
aaaa(lp9302
S'neighbour'
p9303
a(lp9304
(lp9305
S'n002'
p9306
aa(lp9307
S'n003'
p9308
aa(lp9309
S'n005'
p9310
aaaa(lp9311
g8515
a(lp9312
aa(lp9313
g8518
a(lp9314
aa(lp9315
g8582
a(lp9316
aa(lp9317
g8521
a(lp9318
aa(lp9319
g8545
a(lp9320
aatp9321
Rp9322
sg68
g8489
sg69
I12
sg70
(lp9323
sba(iHistoryObjects
State
p9324
(dp9325
g5
(lp9326
sg7
(lp9327
(iHistoryObjects
Message
p9328
(dp9329
g78
S'n003'
p9330
sg80
S'n001'
p9331
sg81
(lp9332
S'n005'
p9333
aS'n003n005'
p9334
asg83
I1
sg84
S'defender.advert'
p9335
sg86
S'2013-09-24 18:09:44.003'
p9336
sg88
I80
sbasg9
g10
((lp9337
(lp9338
S'defender.best_cost'
p9339
a(lp9340
(lp9341
S'n005'
p9342
ag245
aaaa(lp9343
S'defender.best_local_pref'
p9344
a(lp9345
(lp9346
S'n005'
p9347
aS'10'
p9348
aaaa(lp9349
S'defender.best_next_hop'
p9350
a(lp9351
(lp9352
S'n005'
p9353
aS'n005'
p9354
aaaa(lp9355
S'defender.policy'
p9356
a(lp9357
(lp9358
S'n003n004n002n005'
p9359
aS'20'
p9360
aa(lp9361
S'n005'
p9362
aS'10'
p9363
aaaa(lp9364
S'defender.rib_in'
p9365
a(lp9366
(lp9367
S'n005'
p9368
aS'n005'
p9369
aS'n005'
p9370
aaaa(lp9371
S'defender.rib_in_changed'
p9372
a(lp9373
(lp9374
S'n005'
p9375
aS'n003'
p9376
aaaa(lp9377
S'defender.rib_selected'
p9378
a(lp9379
(lp9380
S'n005'
p9381
aS'n005'
p9382
aS'n005'
p9383
aaaa(lp9384
S'neighbour'
p9385
a(lp9386
(lp9387
S'n002'
p9388
aa(lp9389
S'n003'
p9390
aa(lp9391
S'n005'
p9392
aaaa(lp9393
g8515
a(lp9394
aa(lp9395
g8518
a(lp9396
aa(lp9397
g8582
a(lp9398
aa(lp9399
g8521
a(lp9400
aa(lp9401
g8545
a(lp9402
aatp9403
Rp9404
sg68
g8489
sg69
I13
sg70
(lp9405
(iHistoryObjects
Message
p9406
(dp9407
g78
S'n001'
p9408
sg80
S'n002'
p9409
sg81
(lp9410
S'n005'
p9411
aS'n001n005'
p9412
asg83
I0
sg84
S'defender.advert'
p9413
sg86
S'2013-09-24 18:09:45.906'
p9414
sg88
I110
sba(iHistoryObjects
Message
p9415
(dp9416
g78
S'n001'
p9417
sg80
S'n003'
p9418
sg81
(lp9419
S'n005'
p9420
aS'n001n005'
p9421
asg83
I0
sg84
S'defender.advert'
p9422
sg86
S'2013-09-24 18:09:45.906'
p9423
sg88
I111
sba(iHistoryObjects
Message
p9424
(dp9425
g78
S'n001'
p9426
sg80
S'n005'
p9427
sg81
(lp9428
S'n005'
p9429
asg83
I0
sg84
S'defender.withdraw'
p9430
sg86
S'2013-09-24 18:09:45.918'
p9431
sg88
I112
sbasba(iHistoryObjects
State
p9432
(dp9433
g5
(lp9434
sg7
(lp9435
(iHistoryObjects
Message
p9436
(dp9437
g78
S'n002'
p9438
sg80
S'n001'
p9439
sg81
(lp9440
S'n005'
p9441
asg83
I1
sg84
S'defender.withdraw'
p9442
sg86
S'2013-09-24 18:09:47.074'
p9443
sg88
I51
sbasg9
g10
((lp9444
(lp9445
S'defender.best_cost'
p9446
a(lp9447
(lp9448
S'n005'
p9449
ag245
aaaa(lp9450
S'defender.best_local_pref'
p9451
a(lp9452
(lp9453
S'n005'
p9454
aS'10'
p9455
aaaa(lp9456
S'defender.best_next_hop'
p9457
a(lp9458
(lp9459
S'n005'
p9460
aS'n005'
p9461
aaaa(lp9462
S'defender.policy'
p9463
a(lp9464
(lp9465
S'n003n004n002n005'
p9466
aS'20'
p9467
aa(lp9468
S'n005'
p9469
aS'10'
p9470
aaaa(lp9471
S'defender.rib_in'
p9472
a(lp9473
(lp9474
S'n005'
p9475
aS'n005'
p9476
aS'n005'
p9477
aaaa(lp9478
S'defender.rib_in_changed'
p9479
a(lp9480
(lp9481
S'n005'
p9482
aS'n002'
p9483
aaaa(lp9484
S'defender.rib_selected'
p9485
a(lp9486
(lp9487
S'n005'
p9488
aS'n005'
p9489
aS'n005'
p9490
aaaa(lp9491
S'neighbour'
p9492
a(lp9493
(lp9494
S'n002'
p9495
aa(lp9496
S'n003'
p9497
aa(lp9498
S'n005'
p9499
aaaa(lp9500
g8515
a(lp9501
aa(lp9502
g8518
a(lp9503
aa(lp9504
g8582
a(lp9505
aa(lp9506
g8521
a(lp9507
aa(lp9508
g8545
a(lp9509
aatp9510
Rp9511
sg68
g8489
sg69
I15
sg70
(lp9512
sba(iHistoryObjects
State
p9513
(dp9514
g5
(lp9515
sg7
(lp9516
(iHistoryObjects
Message
p9517
(dp9518
g78
S'n003'
p9519
sg80
S'n001'
p9520
sg81
(lp9521
S'n005'
p9522
aS'n003n004n002n005'
p9523
asg83
I1
sg84
S'defender.advert'
p9524
sg86
S'2013-09-24 18:09:51.317'
p9525
sg88
I83
sbasg9
g10
((lp9526
(lp9527
S'defender.best_cost'
p9528
a(lp9529
(lp9530
S'n005'
p9531
aS'16'
p9532
aaaa(lp9533
S'defender.best_local_pref'
p9534
a(lp9535
(lp9536
S'n005'
p9537
aS'20'
p9538
aaaa(lp9539
S'defender.best_next_hop'
p9540
a(lp9541
(lp9542
S'n005'
p9543
aS'n003'
p9544
aaaa(lp9545
S'defender.policy'
p9546
a(lp9547
(lp9548
S'n003n004n002n005'
p9549
aS'20'
p9550
aa(lp9551
S'n005'
p9552
aS'10'
p9553
aaaa(lp9554
S'defender.rib_in'
p9555
a(lp9556
(lp9557
S'n005'
p9558
aS'n005'
p9559
aS'n005'
p9560
aa(lp9561
S'n005'
p9562
aS'n003'
p9563
aS'n003n004n002n005'
p9564
aaaa(lp9565
S'defender.rib_in_changed'
p9566
a(lp9567
(lp9568
S'n005'
p9569
aS'n003'
p9570
aaaa(lp9571
S'defender.rib_selected'
p9572
a(lp9573
(lp9574
S'n005'
p9575
aS'n003'
p9576
aS'n003n004n002n005'
p9577
aaaa(lp9578
S'neighbour'
p9579
a(lp9580
(lp9581
S'n002'
p9582
aa(lp9583
S'n003'
p9584
aa(lp9585
S'n005'
p9586
aaaa(lp9587
g8515
a(lp9588
aa(lp9589
g8518
a(lp9590
aa(lp9591
g8582
a(lp9592
aa(lp9593
g8521
a(lp9594
aa(lp9595
g8545
a(lp9596
aatp9597
Rp9598
sg68
g8489
sg69
I17
sg70
(lp9599
(iHistoryObjects
Message
p9600
(dp9601
g78
S'n001'
p9602
sg80
S'n002'
p9603
sg81
(lp9604
S'n005'
p9605
asg83
I0
sg84
S'defender.withdraw'
p9606
sg86
S'2013-09-24 18:09:52.053'
p9607
sg88
I113
sba(iHistoryObjects
Message
p9608
(dp9609
g78
S'n001'
p9610
sg80
S'n005'
p9611
sg81
(lp9612
S'n005'
p9613
asg83
I0
sg84
S'defender.withdraw'
p9614
sg86
S'2013-09-24 18:09:52.053'
p9615
sg88
I114
sba(iHistoryObjects
Message
p9616
(dp9617
g78
S'n001'
p9618
sg80
S'n003'
p9619
sg81
(lp9620
S'n005'
p9621
asg83
I0
sg84
S'defender.withdraw'
p9622
sg86
S'2013-09-24 18:09:52.053'
p9623
sg88
I115
sbasba(iHistoryObjects
State
p9624
(dp9625
g5
(lp9626
sg7
(lp9627
(iHistoryObjects
Message
p9628
(dp9629
g78
S'n002'
p9630
sg80
S'n001'
p9631
sg81
(lp9632
S'n005'
p9633
aS'n002n005'
p9634
asg83
I1
sg84
S'defender.advert'
p9635
sg86
S'2013-09-24 18:09:54.37'
p9636
sg88
I53
sbasg9
g10
((lp9637
(lp9638
S'defender.best_cost'
p9639
a(lp9640
(lp9641
S'n005'
p9642
aS'16'
p9643
aaaa(lp9644
S'defender.best_local_pref'
p9645
a(lp9646
(lp9647
S'n005'
p9648
aS'20'
p9649
aaaa(lp9650
S'defender.best_next_hop'
p9651
a(lp9652
(lp9653
S'n005'
p9654
aS'n003'
p9655
aaaa(lp9656
S'defender.policy'
p9657
a(lp9658
(lp9659
S'n003n004n002n005'
p9660
aS'20'
p9661
aa(lp9662
S'n005'
p9663
aS'10'
p9664
aaaa(lp9665
S'defender.rib_in'
p9666
a(lp9667
(lp9668
S'n005'
p9669
aS'n005'
p9670
aS'n005'
p9671
aa(lp9672
S'n005'
p9673
aS'n003'
p9674
aS'n003n004n002n005'
p9675
aaaa(lp9676
S'defender.rib_in_changed'
p9677
a(lp9678
(lp9679
S'n005'
p9680
aS'n002'
p9681
aaaa(lp9682
S'defender.rib_selected'
p9683
a(lp9684
(lp9685
S'n005'
p9686
aS'n003'
p9687
aS'n003n004n002n005'
p9688
aaaa(lp9689
S'neighbour'
p9690
a(lp9691
(lp9692
S'n002'
p9693
aa(lp9694
S'n003'
p9695
aa(lp9696
S'n005'
p9697
aaaa(lp9698
g8515
a(lp9699
aa(lp9700
g8518
a(lp9701
aa(lp9702
g8582
a(lp9703
aa(lp9704
g8521
a(lp9705
aa(lp9706
g8545
a(lp9707
aatp9708
Rp9709
sg68
g8489
sg69
I19
sg70
(lp9710
sba(iHistoryObjects
State
p9711
(dp9712
g5
(lp9713
sg7
(lp9714
(iHistoryObjects
Message
p9715
(dp9716
g78
S'n003'
p9717
sg80
S'n001'
p9718
sg81
(lp9719
S'n005'
p9720
aS'n003n005'
p9721
asg83
I1
sg84
S'defender.advert'
p9722
sg86
S'2013-09-24 18:09:56.755'
p9723
sg88
I86
sbasg9
g10
((lp9724
(lp9725
S'defender.best_cost'
p9726
a(lp9727
(lp9728
S'n005'
p9729
ag245
aaaa(lp9730
S'defender.best_local_pref'
p9731
a(lp9732
(lp9733
S'n005'
p9734
aS'10'
p9735
aaaa(lp9736
S'defender.best_next_hop'
p9737
a(lp9738
(lp9739
S'n005'
p9740
aS'n005'
p9741
aaaa(lp9742
S'defender.policy'
p9743
a(lp9744
(lp9745
S'n003n004n002n005'
p9746
aS'20'
p9747
aa(lp9748
S'n005'
p9749
aS'10'
p9750
aaaa(lp9751
S'defender.rib_in'
p9752
a(lp9753
(lp9754
S'n005'
p9755
aS'n005'
p9756
aS'n005'
p9757
aaaa(lp9758
S'defender.rib_in_changed'
p9759
a(lp9760
(lp9761
S'n005'
p9762
aS'n003'
p9763
aaaa(lp9764
S'defender.rib_selected'
p9765
a(lp9766
(lp9767
S'n005'
p9768
aS'n005'
p9769
aS'n005'
p9770
aaaa(lp9771
S'neighbour'
p9772
a(lp9773
(lp9774
S'n002'
p9775
aa(lp9776
S'n003'
p9777
aa(lp9778
S'n005'
p9779
aaaa(lp9780
g8515
a(lp9781
aa(lp9782
g8518
a(lp9783
aa(lp9784
g8582
a(lp9785
aa(lp9786
g8521
a(lp9787
aa(lp9788
g8545
a(lp9789
aatp9790
Rp9791
sg68
g8489
sg69
I20
sg70
(lp9792
(iHistoryObjects
Message
p9793
(dp9794
g78
S'n001'
p9795
sg80
S'n002'
p9796
sg81
(lp9797
S'n005'
p9798
aS'n001n005'
p9799
asg83
I0
sg84
S'defender.advert'
p9800
sg86
S'2013-09-24 18:09:57.668'
p9801
sg88
I116
sba(iHistoryObjects
Message
p9802
(dp9803
g78
S'n001'
p9804
sg80
S'n003'
p9805
sg81
(lp9806
S'n005'
p9807
aS'n001n005'
p9808
asg83
I0
sg84
S'defender.advert'
p9809
sg86
S'2013-09-24 18:09:57.668'
p9810
sg88
I117
sba(iHistoryObjects
Message
p9811
(dp9812
g78
S'n001'
p9813
sg80
S'n005'
p9814
sg81
(lp9815
S'n005'
p9816
asg83
I0
sg84
S'defender.withdraw'
p9817
sg86
S'2013-09-24 18:09:57.677'
p9818
sg88
I118
sbasba(iHistoryObjects
State
p9819
(dp9820
g5
(lp9821
sg7
(lp9822
(iHistoryObjects
Message
p9823
(dp9824
g78
S'n002'
p9825
sg80
S'n001'
p9826
sg81
(lp9827
S'n005'
p9828
asg83
I1
sg84
S'defender.withdraw'
p9829
sg86
S'2013-09-24 18:09:59.676'
p9830
sg88
I57
sbasg9
g10
((lp9831
(lp9832
S'defender.best_cost'
p9833
a(lp9834
(lp9835
S'n005'
p9836
ag245
aaaa(lp9837
S'defender.best_local_pref'
p9838
a(lp9839
(lp9840
S'n005'
p9841
aS'10'
p9842
aaaa(lp9843
S'defender.best_next_hop'
p9844
a(lp9845
(lp9846
S'n005'
p9847
aS'n005'
p9848
aaaa(lp9849
S'defender.policy'
p9850
a(lp9851
(lp9852
S'n003n004n002n005'
p9853
aS'20'
p9854
aa(lp9855
S'n005'
p9856
aS'10'
p9857
aaaa(lp9858
S'defender.rib_in'
p9859
a(lp9860
(lp9861
S'n005'
p9862
aS'n005'
p9863
aS'n005'
p9864
aaaa(lp9865
S'defender.rib_in_changed'
p9866
a(lp9867
(lp9868
S'n005'
p9869
aS'n002'
p9870
aaaa(lp9871
S'defender.rib_selected'
p9872
a(lp9873
(lp9874
S'n005'
p9875
aS'n005'
p9876
aS'n005'
p9877
aaaa(lp9878
S'neighbour'
p9879
a(lp9880
(lp9881
S'n002'
p9882
aa(lp9883
S'n003'
p9884
aa(lp9885
S'n005'
p9886
aaaa(lp9887
g8515
a(lp9888
aa(lp9889
g8518
a(lp9890
aa(lp9891
g8582
a(lp9892
aa(lp9893
g8521
a(lp9894
aa(lp9895
g8545
a(lp9896
aatp9897
Rp9898
sg68
g8489
sg69
I22
sg70
(lp9899
sba(iHistoryObjects
State
p9900
(dp9901
g5
(lp9902
sg7
(lp9903
(iHistoryObjects
Message
p9904
(dp9905
g78
S'n003'
p9906
sg80
S'n001'
p9907
sg81
(lp9908
S'n005'
p9909
aS'n003n004n002n005'
p9910
asg83
I1
sg84
S'defender.advert'
p9911
sg86
S'2013-09-24 18:10:04.014'
p9912
sg88
I89
sbasg9
g10
((lp9913
(lp9914
S'defender.best_cost'
p9915
a(lp9916
(lp9917
S'n005'
p9918
aS'16'
p9919
aaaa(lp9920
S'defender.best_local_pref'
p9921
a(lp9922
(lp9923
S'n005'
p9924
aS'20'
p9925
aaaa(lp9926
S'defender.best_next_hop'
p9927
a(lp9928
(lp9929
S'n005'
p9930
aS'n003'
p9931
aaaa(lp9932
S'defender.policy'
p9933
a(lp9934
(lp9935
S'n003n004n002n005'
p9936
aS'20'
p9937
aa(lp9938
S'n005'
p9939
aS'10'
p9940
aaaa(lp9941
S'defender.rib_in'
p9942
a(lp9943
(lp9944
S'n005'
p9945
aS'n005'
p9946
aS'n005'
p9947
aa(lp9948
S'n005'
p9949
aS'n003'
p9950
aS'n003n004n002n005'
p9951
aaaa(lp9952
S'defender.rib_in_changed'
p9953
a(lp9954
(lp9955
S'n005'
p9956
aS'n003'
p9957
aaaa(lp9958
S'defender.rib_selected'
p9959
a(lp9960
(lp9961
S'n005'
p9962
aS'n003'
p9963
aS'n003n004n002n005'
p9964
aaaa(lp9965
S'neighbour'
p9966
a(lp9967
(lp9968
S'n002'
p9969
aa(lp9970
S'n003'
p9971
aa(lp9972
S'n005'
p9973
aaaa(lp9974
g8515
a(lp9975
aa(lp9976
g8518
a(lp9977
aa(lp9978
g8582
a(lp9979
aa(lp9980
g8521
a(lp9981
aa(lp9982
g8545
a(lp9983
aatp9984
Rp9985
sg68
g8489
sg69
I24
sg70
(lp9986
(iHistoryObjects
Message
p9987
(dp9988
g78
S'n001'
p9989
sg80
S'n002'
p9990
sg81
(lp9991
S'n005'
p9992
asg83
I0
sg84
S'defender.withdraw'
p9993
sg86
S'2013-09-24 18:10:04.335'
p9994
sg88
I119
sba(iHistoryObjects
Message
p9995
(dp9996
g78
S'n001'
p9997
sg80
S'n005'
p9998
sg81
(lp9999
S'n005'
p10000
asg83
I1
sg84
S'defender.withdraw'
p10001
sg86
S'2013-09-24 18:10:04.335'
p10002
sg69
I24
sg88
I120
sba(iHistoryObjects
Message
p10003
(dp10004
g78
S'n001'
p10005
sg80
S'n003'
p10006
sg81
(lp10007
S'n005'
p10008
asg83
I0
sg84
S'defender.withdraw'
p10009
sg86
S'2013-09-24 18:10:04.335'
p10010
sg88
I121
sbasba(iHistoryObjects
State
p10011
(dp10012
g5
(lp10013
sg7
(lp10014
(iHistoryObjects
Message
p10015
(dp10016
g78
S'n002'
p10017
sg80
S'n001'
p10018
sg81
(lp10019
S'n005'
p10020
aS'n002n005'
p10021
asg83
I1
sg84
S'defender.advert'
p10022
sg86
S'2013-09-24 18:10:07.05'
p10023
sg88
I59
sbasg9
g10
((lp10024
(lp10025
S'defender.best_cost'
p10026
a(lp10027
(lp10028
S'n005'
p10029
aS'16'
p10030
aaaa(lp10031
S'defender.best_local_pref'
p10032
a(lp10033
(lp10034
S'n005'
p10035
aS'20'
p10036
aaaa(lp10037
S'defender.best_next_hop'
p10038
a(lp10039
(lp10040
S'n005'
p10041
aS'n003'
p10042
aaaa(lp10043
S'defender.policy'
p10044
a(lp10045
(lp10046
S'n003n004n002n005'
p10047
aS'20'
p10048
aa(lp10049
S'n005'
p10050
aS'10'
p10051
aaaa(lp10052
S'defender.rib_in'
p10053
a(lp10054
(lp10055
S'n005'
p10056
aS'n005'
p10057
aS'n005'
p10058
aa(lp10059
S'n005'
p10060
aS'n003'
p10061
aS'n003n004n002n005'
p10062
aaaa(lp10063
S'defender.rib_in_changed'
p10064
a(lp10065
(lp10066
S'n005'
p10067
aS'n002'
p10068
aaaa(lp10069
S'defender.rib_selected'
p10070
a(lp10071
(lp10072
S'n005'
p10073
aS'n003'
p10074
aS'n003n004n002n005'
p10075
aaaa(lp10076
S'neighbour'
p10077
a(lp10078
(lp10079
S'n002'
p10080
aa(lp10081
S'n003'
p10082
aa(lp10083
S'n005'
p10084
aaaa(lp10085
g8515
a(lp10086
aa(lp10087
g8518
a(lp10088
aa(lp10089
g8582
a(lp10090
aa(lp10091
g8521
a(lp10092
aa(lp10093
g8545
a(lp10094
aatp10095
Rp10096
sg68
g8489
sg69
I26
sg70
(lp10097
sba(iHistoryObjects
State
p10098
(dp10099
g5
(lp10100
sg7
(lp10101
(iHistoryObjects
Message
p10102
(dp10103
g78
S'n003'
p10104
sg80
S'n001'
p10105
sg81
(lp10106
S'n005'
p10107
aS'n003n005'
p10108
asg83
I1
sg84
S'defender.advert'
p10109
sg86
S'2013-09-24 18:10:08.316'
p10110
sg88
I92
sbasg9
g10
((lp10111
(lp10112
S'defender.best_cost'
p10113
a(lp10114
(lp10115
S'n005'
p10116
ag245
aaaa(lp10117
S'defender.best_local_pref'
p10118
a(lp10119
(lp10120
S'n005'
p10121
aS'10'
p10122
aaaa(lp10123
S'defender.best_next_hop'
p10124
a(lp10125
(lp10126
S'n005'
p10127
aS'n005'
p10128
aaaa(lp10129
S'defender.policy'
p10130
a(lp10131
(lp10132
S'n003n004n002n005'
p10133
aS'20'
p10134
aa(lp10135
S'n005'
p10136
aS'10'
p10137
aaaa(lp10138
S'defender.rib_in'
p10139
a(lp10140
(lp10141
S'n005'
p10142
aS'n005'
p10143
aS'n005'
p10144
aaaa(lp10145
S'defender.rib_in_changed'
p10146
a(lp10147
(lp10148
S'n005'
p10149
aS'n003'
p10150
aaaa(lp10151
S'defender.rib_selected'
p10152
a(lp10153
(lp10154
S'n005'
p10155
aS'n005'
p10156
aS'n005'
p10157
aaaa(lp10158
S'neighbour'
p10159
a(lp10160
(lp10161
S'n002'
p10162
aa(lp10163
S'n003'
p10164
aa(lp10165
S'n005'
p10166
aaaa(lp10167
g8515
a(lp10168
aa(lp10169
g8518
a(lp10170
aa(lp10171
g8582
a(lp10172
aa(lp10173
g8521
a(lp10174
aa(lp10175
g8545
a(lp10176
aatp10177
Rp10178
sg68
g8489
sg69
I27
sg70
(lp10179
(iHistoryObjects
Message
p10180
(dp10181
g78
S'n001'
p10182
sg80
S'n002'
p10183
sg81
(lp10184
S'n005'
p10185
aS'n001n005'
p10186
asg83
I0
sg84
S'defender.advert'
p10187
sg86
S'2013-09-24 18:10:10.055'
p10188
sg88
I122
sba(iHistoryObjects
Message
p10189
(dp10190
g78
S'n001'
p10191
sg80
S'n003'
p10192
sg81
(lp10193
S'n005'
p10194
aS'n001n005'
p10195
asg83
I0
sg84
S'defender.advert'
p10196
sg86
S'2013-09-24 18:10:10.055'
p10197
sg88
I123
sba(iHistoryObjects
Message
p10198
(dp10199
g78
S'n001'
p10200
sg80
S'n005'
p10201
sg81
(lp10202
S'n005'
p10203
asg83
I1
sg84
S'defender.withdraw'
p10204
sg86
S'2013-09-24 18:10:10.065'
p10205
sg69
I27
sg88
I124
sbasba(iHistoryObjects
State
p10206
(dp10207
g5
(lp10208
sg7
(lp10209
(iHistoryObjects
Message
p10210
(dp10211
g78
S'n002'
p10212
sg80
S'n001'
p10213
sg81
(lp10214
S'n005'
p10215
asg83
I1
sg84
S'defender.withdraw'
p10216
sg86
S'2013-09-24 18:10:11.288'
p10217
sg88
I63
sbasg9
g10
((lp10218
(lp10219
S'defender.best_cost'
p10220
a(lp10221
(lp10222
S'n005'
p10223
ag245
aaaa(lp10224
S'defender.best_local_pref'
p10225
a(lp10226
(lp10227
S'n005'
p10228
aS'10'
p10229
aaaa(lp10230
S'defender.best_next_hop'
p10231
a(lp10232
(lp10233
S'n005'
p10234
aS'n005'
p10235
aaaa(lp10236
S'defender.policy'
p10237
a(lp10238
(lp10239
S'n003n004n002n005'
p10240
aS'20'
p10241
aa(lp10242
S'n005'
p10243
aS'10'
p10244
aaaa(lp10245
S'defender.rib_in'
p10246
a(lp10247
(lp10248
S'n005'
p10249
aS'n005'
p10250
aS'n005'
p10251
aaaa(lp10252
S'defender.rib_in_changed'
p10253
a(lp10254
(lp10255
S'n005'
p10256
aS'n002'
p10257
aaaa(lp10258
S'defender.rib_selected'
p10259
a(lp10260
(lp10261
S'n005'
p10262
aS'n005'
p10263
aS'n005'
p10264
aaaa(lp10265
S'neighbour'
p10266
a(lp10267
(lp10268
S'n002'
p10269
aa(lp10270
S'n003'
p10271
aa(lp10272
S'n005'
p10273
aaaa(lp10274
g8515
a(lp10275
aa(lp10276
g8518
a(lp10277
aa(lp10278
g8582
a(lp10279
aa(lp10280
g8521
a(lp10281
aa(lp10282
g8545
a(lp10283
aatp10284
Rp10285
sg68
g8489
sg69
I29
sg70
(lp10286
sba(iHistoryObjects
State
p10287
(dp10288
g5
(lp10289
sg7
(lp10290
(iHistoryObjects
Message
p10291
(dp10292
g78
S'n003'
p10293
sg80
S'n001'
p10294
sg81
(lp10295
S'n005'
p10296
aS'n003n004n002n005'
p10297
asg83
I1
sg84
S'defender.advert'
p10298
sg86
S'2013-09-24 18:10:15.218'
p10299
sg88
I95
sbasg9
g10
((lp10300
(lp10301
S'defender.best_cost'
p10302
a(lp10303
(lp10304
S'n005'
p10305
aS'16'
p10306
aaaa(lp10307
S'defender.best_local_pref'
p10308
a(lp10309
(lp10310
S'n005'
p10311
aS'20'
p10312
aaaa(lp10313
S'defender.best_next_hop'
p10314
a(lp10315
(lp10316
S'n005'
p10317
aS'n003'
p10318
aaaa(lp10319
S'defender.policy'
p10320
a(lp10321
(lp10322
S'n003n004n002n005'
p10323
aS'20'
p10324
aa(lp10325
S'n005'
p10326
aS'10'
p10327
aaaa(lp10328
S'defender.rib_in'
p10329
a(lp10330
(lp10331
S'n005'
p10332
aS'n005'
p10333
aS'n005'
p10334
aa(lp10335
S'n005'
p10336
aS'n003'
p10337
aS'n003n004n002n005'
p10338
aaaa(lp10339
S'defender.rib_in_changed'
p10340
a(lp10341
(lp10342
S'n005'
p10343
aS'n003'
p10344
aaaa(lp10345
S'defender.rib_selected'
p10346
a(lp10347
(lp10348
S'n005'
p10349
aS'n003'
p10350
aS'n003n004n002n005'
p10351
aaaa(lp10352
S'neighbour'
p10353
a(lp10354
(lp10355
S'n002'
p10356
aa(lp10357
S'n003'
p10358
aa(lp10359
S'n005'
p10360
aaaa(lp10361
g8515
a(lp10362
aa(lp10363
g8518
a(lp10364
aa(lp10365
g8582
a(lp10366
aa(lp10367
g8521
a(lp10368
aa(lp10369
g8545
a(lp10370
aatp10371
Rp10372
sg68
g8489
sg69
I31
sg70
(lp10373
(iHistoryObjects
Message
p10374
(dp10375
g78
S'n001'
p10376
sg80
S'n002'
p10377
sg81
(lp10378
S'n005'
p10379
asg83
I0
sg84
S'defender.withdraw'
p10380
sg86
S'2013-09-24 18:10:15.723'
p10381
sg88
I125
sba(iHistoryObjects
Message
p10382
(dp10383
g78
S'n001'
p10384
sg80
S'n005'
p10385
sg81
(lp10386
S'n005'
p10387
asg83
I1
sg84
S'defender.withdraw'
p10388
sg86
S'2013-09-24 18:10:15.723'
p10389
sg69
I31
sg88
I126
sba(iHistoryObjects
Message
p10390
(dp10391
g78
S'n001'
p10392
sg80
S'n003'
p10393
sg81
(lp10394
S'n005'
p10395
asg83
I0
sg84
S'defender.withdraw'
p10396
sg86
S'2013-09-24 18:10:15.723'
p10397
sg88
I127
sbasba(iHistoryObjects
State
p10398
(dp10399
g5
(lp10400
sg7
(lp10401
(iHistoryObjects
Message
p10402
(dp10403
g78
S'n002'
p10404
sg80
S'n001'
p10405
sg81
(lp10406
S'n005'
p10407
aS'n002n005'
p10408
asg83
I1
sg84
S'defender.advert'
p10409
sg86
S'2013-09-24 18:10:18.259'
p10410
sg88
I65
sbasg9
g10
((lp10411
(lp10412
S'defender.best_cost'
p10413
a(lp10414
(lp10415
S'n005'
p10416
aS'16'
p10417
aaaa(lp10418
S'defender.best_local_pref'
p10419
a(lp10420
(lp10421
S'n005'
p10422
aS'20'
p10423
aaaa(lp10424
S'defender.best_next_hop'
p10425
a(lp10426
(lp10427
S'n005'
p10428
aS'n003'
p10429
aaaa(lp10430
S'defender.policy'
p10431
a(lp10432
(lp10433
S'n003n004n002n005'
p10434
aS'20'
p10435
aa(lp10436
S'n005'
p10437
aS'10'
p10438
aaaa(lp10439
S'defender.rib_in'
p10440
a(lp10441
(lp10442
S'n005'
p10443
aS'n005'
p10444
aS'n005'
p10445
aa(lp10446
S'n005'
p10447
aS'n003'
p10448
aS'n003n004n002n005'
p10449
aaaa(lp10450
S'defender.rib_in_changed'
p10451
a(lp10452
(lp10453
S'n005'
p10454
aS'n002'
p10455
aaaa(lp10456
S'defender.rib_selected'
p10457
a(lp10458
(lp10459
S'n005'
p10460
aS'n003'
p10461
aS'n003n004n002n005'
p10462
aaaa(lp10463
S'neighbour'
p10464
a(lp10465
(lp10466
S'n002'
p10467
aa(lp10468
S'n003'
p10469
aa(lp10470
S'n005'
p10471
aaaa(lp10472
g8515
a(lp10473
aa(lp10474
g8518
a(lp10475
aa(lp10476
g8582
a(lp10477
aa(lp10478
g8521
a(lp10479
aa(lp10480
g8545
a(lp10481
aatp10482
Rp10483
sg68
g8489
sg69
I33
sg70
(lp10484
sba(iHistoryObjects
State
p10485
(dp10486
g5
(lp10487
sg7
(lp10488
(iHistoryObjects
Message
p10489
(dp10490
g78
S'n003'
p10491
sg80
S'n001'
p10492
sg81
(lp10493
S'n005'
p10494
aS'n003n005'
p10495
asg83
I1
sg84
S'defender.advert'
p10496
sg86
S'2013-09-24 18:10:19.396'
p10497
sg88
I98
sbasg9
g10
((lp10498
(lp10499
S'defender.best_cost'
p10500
a(lp10501
(lp10502
S'n005'
p10503
ag245
aaaa(lp10504
S'defender.best_local_pref'
p10505
a(lp10506
(lp10507
S'n005'
p10508
aS'10'
p10509
aaaa(lp10510
S'defender.best_next_hop'
p10511
a(lp10512
(lp10513
S'n005'
p10514
aS'n005'
p10515
aaaa(lp10516
S'defender.policy'
p10517
a(lp10518
(lp10519
S'n003n004n002n005'
p10520
aS'20'
p10521
aa(lp10522
S'n005'
p10523
aS'10'
p10524
aaaa(lp10525
S'defender.rib_in'
p10526
a(lp10527
(lp10528
S'n005'
p10529
aS'n005'
p10530
aS'n005'
p10531
aaaa(lp10532
S'defender.rib_in_changed'
p10533
a(lp10534
(lp10535
S'n005'
p10536
aS'n003'
p10537
aaaa(lp10538
S'defender.rib_selected'
p10539
a(lp10540
(lp10541
S'n005'
p10542
aS'n005'
p10543
aS'n005'
p10544
aaaa(lp10545
S'neighbour'
p10546
a(lp10547
(lp10548
S'n002'
p10549
aa(lp10550
S'n003'
p10551
aa(lp10552
S'n005'
p10553
aaaa(lp10554
g8515
a(lp10555
aa(lp10556
g8518
a(lp10557
aa(lp10558
g8582
a(lp10559
aa(lp10560
g8521
a(lp10561
aa(lp10562
g8545
a(lp10563
aatp10564
Rp10565
sg68
g8489
sg69
I34
sg70
(lp10566
(iHistoryObjects
Message
p10567
(dp10568
g78
S'n001'
p10569
sg80
S'n002'
p10570
sg81
(lp10571
S'n005'
p10572
aS'n001n005'
p10573
asg83
I0
sg84
S'defender.advert'
p10574
sg86
S'2013-09-24 18:10:21.435'
p10575
sg88
I128
sba(iHistoryObjects
Message
p10576
(dp10577
g78
S'n001'
p10578
sg80
S'n003'
p10579
sg81
(lp10580
S'n005'
p10581
aS'n001n005'
p10582
asg83
I0
sg84
S'defender.advert'
p10583
sg86
S'2013-09-24 18:10:21.435'
p10584
sg88
I129
sba(iHistoryObjects
Message
p10585
(dp10586
g78
S'n001'
p10587
sg80
S'n005'
p10588
sg81
(lp10589
S'n005'
p10590
asg83
I1
sg84
S'defender.withdraw'
p10591
sg86
S'2013-09-24 18:10:21.445'
p10592
sg69
I34
sg88
I130
sbasbas.